
robot_arm_driving_7.elf:     file format elf32-avr

Sections:
Idx Name          Size      VMA       LMA       File off  Algn
  0 .data         00000012  00800100  00002648  000026dc  2**0
                  CONTENTS, ALLOC, LOAD, DATA
  1 .text         00002648  00000000  00000000  00000094  2**1
                  CONTENTS, ALLOC, LOAD, READONLY, CODE
  2 .bss          000001ce  00800112  00800112  000026ee  2**0
                  ALLOC
  3 .comment      00000030  00000000  00000000  000026ee  2**0
                  CONTENTS, READONLY
  4 .note.gnu.avr.deviceinfo 0000003c  00000000  00000000  00002720  2**2
                  CONTENTS, READONLY
  5 .debug_info   00000780  00000000  00000000  0000275c  2**0
                  CONTENTS, READONLY, DEBUGGING
  6 .debug_abbrev 00000718  00000000  00000000  00002edc  2**0
                  CONTENTS, READONLY, DEBUGGING
  7 .debug_line   00000169  00000000  00000000  000035f4  2**0
                  CONTENTS, READONLY, DEBUGGING
  8 .debug_str    0000027d  00000000  00000000  0000375d  2**0
                  CONTENTS, READONLY, DEBUGGING

Disassembly of section .text:

00000000 <__vectors>:
       0:	8a c0       	rjmp	.+276    	; 0x116 <__ctors_end>
       2:	00 00       	nop
       4:	b2 c0       	rjmp	.+356    	; 0x16a <__bad_interrupt>
       6:	00 00       	nop
       8:	b0 c0       	rjmp	.+352    	; 0x16a <__bad_interrupt>
       a:	00 00       	nop
       c:	ae c0       	rjmp	.+348    	; 0x16a <__bad_interrupt>
       e:	00 00       	nop
      10:	ac c0       	rjmp	.+344    	; 0x16a <__bad_interrupt>
      12:	00 00       	nop
      14:	aa c0       	rjmp	.+340    	; 0x16a <__bad_interrupt>
      16:	00 00       	nop
      18:	a8 c0       	rjmp	.+336    	; 0x16a <__bad_interrupt>
      1a:	00 00       	nop
      1c:	a6 c0       	rjmp	.+332    	; 0x16a <__bad_interrupt>
      1e:	00 00       	nop
      20:	a4 c0       	rjmp	.+328    	; 0x16a <__bad_interrupt>
      22:	00 00       	nop
      24:	a2 c0       	rjmp	.+324    	; 0x16a <__bad_interrupt>
      26:	00 00       	nop
      28:	a0 c0       	rjmp	.+320    	; 0x16a <__bad_interrupt>
      2a:	00 00       	nop
      2c:	9e c0       	rjmp	.+316    	; 0x16a <__bad_interrupt>
      2e:	00 00       	nop
      30:	9c c0       	rjmp	.+312    	; 0x16a <__bad_interrupt>
      32:	00 00       	nop
      34:	9a c0       	rjmp	.+308    	; 0x16a <__bad_interrupt>
      36:	00 00       	nop
      38:	98 c0       	rjmp	.+304    	; 0x16a <__bad_interrupt>
      3a:	00 00       	nop
      3c:	0c 94 a9 0b 	jmp	0x1752	; 0x1752 <__vector_15>
      40:	94 c0       	rjmp	.+296    	; 0x16a <__bad_interrupt>
      42:	00 00       	nop
      44:	92 c0       	rjmp	.+292    	; 0x16a <__bad_interrupt>
      46:	00 00       	nop
      48:	90 c0       	rjmp	.+288    	; 0x16a <__bad_interrupt>
      4a:	00 00       	nop
      4c:	8e c0       	rjmp	.+284    	; 0x16a <__bad_interrupt>
      4e:	00 00       	nop
      50:	8c c0       	rjmp	.+280    	; 0x16a <__bad_interrupt>
      52:	00 00       	nop
      54:	8a c0       	rjmp	.+276    	; 0x16a <__bad_interrupt>
      56:	00 00       	nop
      58:	88 c0       	rjmp	.+272    	; 0x16a <__bad_interrupt>
      5a:	00 00       	nop
      5c:	86 c0       	rjmp	.+268    	; 0x16a <__bad_interrupt>
      5e:	00 00       	nop
      60:	84 c0       	rjmp	.+264    	; 0x16a <__bad_interrupt>
      62:	00 00       	nop
      64:	82 c0       	rjmp	.+260    	; 0x16a <__bad_interrupt>
      66:	00 00       	nop
      68:	80 c0       	rjmp	.+256    	; 0x16a <__bad_interrupt>
      6a:	00 00       	nop
      6c:	7e c0       	rjmp	.+252    	; 0x16a <__bad_interrupt>
      6e:	00 00       	nop
      70:	7c c0       	rjmp	.+248    	; 0x16a <__bad_interrupt>
      72:	00 00       	nop
      74:	7a c0       	rjmp	.+244    	; 0x16a <__bad_interrupt>
      76:	00 00       	nop
      78:	78 c0       	rjmp	.+240    	; 0x16a <__bad_interrupt>
      7a:	00 00       	nop
      7c:	76 c0       	rjmp	.+236    	; 0x16a <__bad_interrupt>
      7e:	00 00       	nop
      80:	74 c0       	rjmp	.+232    	; 0x16a <__bad_interrupt>
      82:	00 00       	nop
      84:	72 c0       	rjmp	.+228    	; 0x16a <__bad_interrupt>
      86:	00 00       	nop
      88:	70 c0       	rjmp	.+224    	; 0x16a <__bad_interrupt>
      8a:	00 00       	nop
      8c:	03 6e       	ori	r16, 0xE3	; 227
      8e:	db 36       	cpi	r29, 0x6B	; 107
      90:	3d 9a       	sbi	0x07, 5	; 7
      92:	99 99       	sbic	0x13, 1	; 19
      94:	99 3d       	cpi	r25, 0xD9	; 217
      96:	ab aa       	std	Y+51, r10	; 0x33
      98:	aa 2a       	or	r10, r26
      9a:	3e 00       	.word	0x003e	; ????
      9c:	00 00       	nop
      9e:	80 3f       	cpi	r24, 0xF0	; 240
      a0:	08 4a       	sbci	r16, 0xA8	; 168
      a2:	d7 3b       	cpi	r29, 0xB7	; 183
      a4:	3b ce       	rjmp	.-906    	; 0xfffffd1c <__eeprom_end+0xff7efd1c>
      a6:	01 6e       	ori	r16, 0xE1	; 225
      a8:	84 bc       	out	0x24, r8	; 36
      aa:	bf fd       	.word	0xfdbf	; ????
      ac:	c1 2f       	mov	r28, r17
      ae:	3d 6c       	ori	r19, 0xCD	; 205
      b0:	74 31       	cpi	r23, 0x14	; 20
      b2:	9a bd       	out	0x2a, r25	; 42
      b4:	56 83       	std	Z+6, r21	; 0x06
      b6:	3d da       	rcall	.-2950   	; 0xfffff532 <__eeprom_end+0xff7ef532>
      b8:	3d 00       	.word	0x003d	; ????
      ba:	c7 7f       	andi	r28, 0xF7	; 247
      bc:	11 be       	out	0x31, r1	; 49
      be:	d9 e4       	ldi	r29, 0x49	; 73
      c0:	bb 4c       	sbci	r27, 0xCB	; 203
      c2:	3e 91       	ld	r19, -X
      c4:	6b aa       	std	Y+51, r6	; 0x33
      c6:	aa be       	out	0x3a, r10	; 58
      c8:	00 00       	nop
      ca:	00 80       	ld	r0, Z
      cc:	3f 07       	cpc	r19, r31
      ce:	2c 7a       	andi	r18, 0xAC	; 172
      d0:	a5 ba       	out	0x15, r10	; 21
      d2:	6c c5       	rjmp	.+2776   	; 0xbac <_Z26robot_4aix_arm_degree_clacP10motor_listdddddddPdS1_S1_S1_S1_+0x268>
      d4:	90 da       	rcall	.-2784   	; 0xfffff5f6 <__eeprom_end+0xff7ef5f6>
      d6:	3b 93       	.word	0x933b	; ????
      d8:	65 fc       	sbrc	r6, 5
      da:	8b bc       	out	0x2b, r8	; 43
      dc:	53 f8       	bld	r5, 3
      de:	10 fd       	sbrc	r17, 0
      e0:	3c 56       	subi	r19, 0x6C	; 108
      e2:	92 83       	std	Z+2, r25	; 0x02
      e4:	4d bd       	out	0x2d, r20	; 45
      e6:	87 9d       	mul	r24, r7
      e8:	3a b6       	in	r3, 0x3a	; 58
      ea:	3d cb       	rjmp	.-2438   	; 0xfffff766 <__eeprom_end+0xff7ef766>
      ec:	c9 bf       	out	0x39, r28	; 57
      ee:	5b be       	out	0x3b, r5	; 59
      f0:	73 da       	rcall	.-2842   	; 0xfffff5d8 <__eeprom_end+0xff7ef5d8>
      f2:	0f c9       	rjmp	.-3554   	; 0xfffff312 <__eeprom_end+0xff7ef312>
      f4:	3f 05       	cpc	r19, r15
      f6:	a8 4c       	sbci	r26, 0xC8	; 200
      f8:	cd b2       	in	r12, 0x1d	; 29
      fa:	d4 4e       	sbci	r29, 0xE4	; 228
      fc:	b9 38       	cpi	r27, 0x89	; 137
      fe:	36 a9       	ldd	r19, Z+54	; 0x36
     100:	02 0c       	add	r0, r2
     102:	50 b9       	out	0x00, r21	; 0
     104:	91 86       	std	Z+9, r9	; 0x09
     106:	88 08       	sbc	r8, r8
     108:	3c a6       	std	Y+44, r3	; 0x2c
     10a:	aa aa       	std	Y+50, r10	; 0x32
     10c:	2a be       	out	0x3a, r2	; 58
     10e:	00 00       	nop
     110:	00 80       	ld	r0, Z
     112:	3f 00       	.word	0x003f	; ????

00000114 <__ctors_start>:
     114:	07 0e       	add	r0, r23

00000116 <__ctors_end>:
     116:	11 24       	eor	r1, r1
     118:	1f be       	out	0x3f, r1	; 63
     11a:	cf ef       	ldi	r28, 0xFF	; 255
     11c:	d0 e1       	ldi	r29, 0x10	; 16
     11e:	de bf       	out	0x3e, r29	; 62
     120:	cd bf       	out	0x3d, r28	; 61

00000122 <__do_copy_data>:
     122:	11 e0       	ldi	r17, 0x01	; 1
     124:	a0 e0       	ldi	r26, 0x00	; 0
     126:	b1 e0       	ldi	r27, 0x01	; 1
     128:	e8 e4       	ldi	r30, 0x48	; 72
     12a:	f6 e2       	ldi	r31, 0x26	; 38
     12c:	00 e0       	ldi	r16, 0x00	; 0
     12e:	0b bf       	out	0x3b, r16	; 59
     130:	02 c0       	rjmp	.+4      	; 0x136 <__do_copy_data+0x14>
     132:	07 90       	elpm	r0, Z+
     134:	0d 92       	st	X+, r0
     136:	a2 31       	cpi	r26, 0x12	; 18
     138:	b1 07       	cpc	r27, r17
     13a:	d9 f7       	brne	.-10     	; 0x132 <__do_copy_data+0x10>

0000013c <__do_clear_bss>:
     13c:	22 e0       	ldi	r18, 0x02	; 2
     13e:	a2 e1       	ldi	r26, 0x12	; 18
     140:	b1 e0       	ldi	r27, 0x01	; 1
     142:	01 c0       	rjmp	.+2      	; 0x146 <.do_clear_bss_start>

00000144 <.do_clear_bss_loop>:
     144:	1d 92       	st	X+, r1

00000146 <.do_clear_bss_start>:
     146:	a0 3e       	cpi	r26, 0xE0	; 224
     148:	b2 07       	cpc	r27, r18
     14a:	e1 f7       	brne	.-8      	; 0x144 <.do_clear_bss_loop>

0000014c <__do_global_ctors>:
     14c:	10 e0       	ldi	r17, 0x00	; 0
     14e:	cb e8       	ldi	r28, 0x8B	; 139
     150:	d0 e0       	ldi	r29, 0x00	; 0
     152:	04 c0       	rjmp	.+8      	; 0x15c <__do_global_ctors+0x10>
     154:	21 97       	sbiw	r28, 0x01	; 1
     156:	fe 01       	movw	r30, r28
     158:	0e 94 19 13 	call	0x2632	; 0x2632 <__tablejump2__>
     15c:	ca 38       	cpi	r28, 0x8A	; 138
     15e:	d1 07       	cpc	r29, r17
     160:	c9 f7       	brne	.-14     	; 0x154 <__do_global_ctors+0x8>
     162:	0e 94 d6 0b 	call	0x17ac	; 0x17ac <main>
     166:	0c 94 22 13 	jmp	0x2644	; 0x2644 <_exit>

0000016a <__bad_interrupt>:
     16a:	4a cf       	rjmp	.-364    	; 0x0 <__vectors>

0000016c <_Z10UART1_initv>:
     16c:	eb e9       	ldi	r30, 0x9B	; 155
     16e:	f0 e0       	ldi	r31, 0x00	; 0
     170:	80 81       	ld	r24, Z
     172:	82 60       	ori	r24, 0x02	; 2
     174:	80 83       	st	Z, r24
     176:	ea e9       	ldi	r30, 0x9A	; 154
     178:	f0 e0       	ldi	r31, 0x00	; 0
     17a:	80 81       	ld	r24, Z
     17c:	88 61       	ori	r24, 0x18	; 24
     17e:	80 83       	st	Z, r24
     180:	ed e9       	ldi	r30, 0x9D	; 157
     182:	f0 e0       	ldi	r31, 0x00	; 0
     184:	80 81       	ld	r24, Z
     186:	86 60       	ori	r24, 0x06	; 6
     188:	80 83       	st	Z, r24
     18a:	10 92 98 00 	sts	0x0098, r1	; 0x800098 <__TEXT_REGION_LENGTH__+0x7e0098>
     18e:	8f ec       	ldi	r24, 0xCF	; 207
     190:	80 93 99 00 	sts	0x0099, r24	; 0x800099 <__TEXT_REGION_LENGTH__+0x7e0099>
     194:	08 95       	ret

00000196 <_Z14UART1_transmitc>:
     196:	90 91 9b 00 	lds	r25, 0x009B	; 0x80009b <__TEXT_REGION_LENGTH__+0x7e009b>
     19a:	95 ff       	sbrs	r25, 5
     19c:	fc cf       	rjmp	.-8      	; 0x196 <_Z14UART1_transmitc>
     19e:	80 93 9c 00 	sts	0x009C, r24	; 0x80009c <__TEXT_REGION_LENGTH__+0x7e009c>
     1a2:	08 95       	ret

000001a4 <_Z18find_coupled_nuberi>:
     1a4:	fc 01       	movw	r30, r24
     1a6:	9c 01       	movw	r18, r24
     1a8:	35 95       	asr	r19
     1aa:	27 95       	ror	r18
     1ac:	35 95       	asr	r19
     1ae:	27 95       	ror	r18
     1b0:	cf 01       	movw	r24, r30
     1b2:	62 e0       	ldi	r22, 0x02	; 2
     1b4:	70 e0       	ldi	r23, 0x00	; 0
     1b6:	0e 94 f2 12 	call	0x25e4	; 0x25e4 <__divmodhi4>
     1ba:	82 0f       	add	r24, r18
     1bc:	2f ef       	ldi	r18, 0xFF	; 255
     1be:	28 0f       	add	r18, r24
     1c0:	cf 01       	movw	r24, r30
     1c2:	64 e0       	ldi	r22, 0x04	; 4
     1c4:	70 e0       	ldi	r23, 0x00	; 0
     1c6:	0e 94 f2 12 	call	0x25e4	; 0x25e4 <__divmodhi4>
     1ca:	95 95       	asr	r25
     1cc:	87 95       	ror	r24
     1ce:	82 0f       	add	r24, r18
     1d0:	82 30       	cpi	r24, 0x02	; 2
     1d2:	08 f0       	brcs	.+2      	; 0x1d6 <_Z18find_coupled_nuberi+0x32>
     1d4:	85 e6       	ldi	r24, 0x65	; 101
     1d6:	08 95       	ret

000001d8 <_Z15delay_costom_msi>:
     1d8:	20 e0       	ldi	r18, 0x00	; 0
     1da:	30 e0       	ldi	r19, 0x00	; 0
     1dc:	28 17       	cp	r18, r24
     1de:	39 07       	cpc	r19, r25
     1e0:	4c f4       	brge	.+18     	; 0x1f4 <_Z15delay_costom_msi+0x1c>
     1e2:	ef e9       	ldi	r30, 0x9F	; 159
     1e4:	ff e0       	ldi	r31, 0x0F	; 15
     1e6:	31 97       	sbiw	r30, 0x01	; 1
     1e8:	f1 f7       	brne	.-4      	; 0x1e6 <_Z15delay_costom_msi+0xe>
     1ea:	00 c0       	rjmp	.+0      	; 0x1ec <_Z15delay_costom_msi+0x14>
     1ec:	00 00       	nop
     1ee:	2f 5f       	subi	r18, 0xFF	; 255
     1f0:	3f 4f       	sbci	r19, 0xFF	; 255
     1f2:	f4 cf       	rjmp	.-24     	; 0x1dc <_Z15delay_costom_msi+0x4>
     1f4:	08 95       	ret

000001f6 <_Z20port_input_assistantcc>:
     1f6:	cf 92       	push	r12
     1f8:	df 92       	push	r13
     1fa:	ef 92       	push	r14
     1fc:	ff 92       	push	r15
     1fe:	0f 93       	push	r16
     200:	1f 93       	push	r17
     202:	cf 93       	push	r28
     204:	df 93       	push	r29
     206:	cd b7       	in	r28, 0x3d	; 61
     208:	de b7       	in	r29, 0x3e	; 62
     20a:	60 97       	sbiw	r28, 0x10	; 16
     20c:	0f b6       	in	r0, 0x3f	; 63
     20e:	f8 94       	cli
     210:	de bf       	out	0x3e, r29	; 62
     212:	0f be       	out	0x3f, r0	; 63
     214:	cd bf       	out	0x3d, r28	; 61
     216:	86 34       	cpi	r24, 0x46	; 70
     218:	31 f1       	breq	.+76     	; 0x266 <_Z20port_input_assistantcc+0x70>
     21a:	68 f4       	brcc	.+26     	; 0x236 <_Z20port_input_assistantcc+0x40>
     21c:	83 34       	cpi	r24, 0x43	; 67
     21e:	e9 f0       	breq	.+58     	; 0x25a <_Z20port_input_assistantcc+0x64>
     220:	28 f4       	brcc	.+10     	; 0x22c <_Z20port_input_assistantcc+0x36>
     222:	81 34       	cpi	r24, 0x41	; 65
     224:	b1 f0       	breq	.+44     	; 0x252 <_Z20port_input_assistantcc+0x5c>
     226:	82 34       	cpi	r24, 0x42	; 66
     228:	b1 f0       	breq	.+44     	; 0x256 <_Z20port_input_assistantcc+0x60>
     22a:	20 c0       	rjmp	.+64     	; 0x26c <_Z20port_input_assistantcc+0x76>
     22c:	84 34       	cpi	r24, 0x44	; 68
     22e:	b9 f0       	breq	.+46     	; 0x25e <_Z20port_input_assistantcc+0x68>
     230:	85 34       	cpi	r24, 0x45	; 69
     232:	b9 f0       	breq	.+46     	; 0x262 <_Z20port_input_assistantcc+0x6c>
     234:	1b c0       	rjmp	.+54     	; 0x26c <_Z20port_input_assistantcc+0x76>
     236:	83 36       	cpi	r24, 0x63	; 99
     238:	81 f0       	breq	.+32     	; 0x25a <_Z20port_input_assistantcc+0x64>
     23a:	28 f4       	brcc	.+10     	; 0x246 <_Z20port_input_assistantcc+0x50>
     23c:	81 36       	cpi	r24, 0x61	; 97
     23e:	49 f0       	breq	.+18     	; 0x252 <_Z20port_input_assistantcc+0x5c>
     240:	82 36       	cpi	r24, 0x62	; 98
     242:	49 f0       	breq	.+18     	; 0x256 <_Z20port_input_assistantcc+0x60>
     244:	13 c0       	rjmp	.+38     	; 0x26c <_Z20port_input_assistantcc+0x76>
     246:	85 36       	cpi	r24, 0x65	; 101
     248:	61 f0       	breq	.+24     	; 0x262 <_Z20port_input_assistantcc+0x6c>
     24a:	48 f0       	brcs	.+18     	; 0x25e <_Z20port_input_assistantcc+0x68>
     24c:	86 36       	cpi	r24, 0x66	; 102
     24e:	59 f0       	breq	.+22     	; 0x266 <_Z20port_input_assistantcc+0x70>
     250:	0d c0       	rjmp	.+26     	; 0x26c <_Z20port_input_assistantcc+0x76>
     252:	29 b3       	in	r18, 0x19	; 25
     254:	09 c0       	rjmp	.+18     	; 0x268 <_Z20port_input_assistantcc+0x72>
     256:	26 b3       	in	r18, 0x16	; 22
     258:	07 c0       	rjmp	.+14     	; 0x268 <_Z20port_input_assistantcc+0x72>
     25a:	23 b3       	in	r18, 0x13	; 19
     25c:	05 c0       	rjmp	.+10     	; 0x268 <_Z20port_input_assistantcc+0x72>
     25e:	20 b3       	in	r18, 0x10	; 16
     260:	03 c0       	rjmp	.+6      	; 0x268 <_Z20port_input_assistantcc+0x72>
     262:	21 b1       	in	r18, 0x01	; 1
     264:	01 c0       	rjmp	.+2      	; 0x268 <_Z20port_input_assistantcc+0x72>
     266:	20 b1       	in	r18, 0x00	; 0
     268:	30 e0       	ldi	r19, 0x00	; 0
     26a:	02 c0       	rjmp	.+4      	; 0x270 <_Z20port_input_assistantcc+0x7a>
     26c:	20 e0       	ldi	r18, 0x00	; 0
     26e:	30 e0       	ldi	r19, 0x00	; 0
     270:	fe 01       	movw	r30, r28
     272:	31 96       	adiw	r30, 0x01	; 1
     274:	80 e1       	ldi	r24, 0x10	; 16
     276:	df 01       	movw	r26, r30
     278:	1d 92       	st	X+, r1
     27a:	8a 95       	dec	r24
     27c:	e9 f7       	brne	.-6      	; 0x278 <_Z20port_input_assistantcc+0x82>
     27e:	e1 2c       	mov	r14, r1
     280:	f1 2c       	mov	r15, r1
     282:	80 e0       	ldi	r24, 0x00	; 0
     284:	90 e0       	ldi	r25, 0x00	; 0
     286:	70 e0       	ldi	r23, 0x00	; 0
     288:	ab 01       	movw	r20, r22
     28a:	08 2e       	mov	r0, r24
     28c:	02 c0       	rjmp	.+4      	; 0x292 <_Z20port_input_assistantcc+0x9c>
     28e:	55 95       	asr	r21
     290:	47 95       	ror	r20
     292:	0a 94       	dec	r0
     294:	e2 f7       	brpl	.-8      	; 0x28e <_Z20port_input_assistantcc+0x98>
     296:	40 ff       	sbrs	r20, 0
     298:	0a c0       	rjmp	.+20     	; 0x2ae <_Z20port_input_assistantcc+0xb8>
     29a:	d7 01       	movw	r26, r14
     29c:	aa 0f       	add	r26, r26
     29e:	bb 1f       	adc	r27, r27
     2a0:	ae 0f       	add	r26, r30
     2a2:	bf 1f       	adc	r27, r31
     2a4:	8d 93       	st	X+, r24
     2a6:	9c 93       	st	X, r25
     2a8:	bf ef       	ldi	r27, 0xFF	; 255
     2aa:	eb 1a       	sub	r14, r27
     2ac:	fb 0a       	sbc	r15, r27
     2ae:	01 96       	adiw	r24, 0x01	; 1
     2b0:	88 30       	cpi	r24, 0x08	; 8
     2b2:	91 05       	cpc	r25, r1
     2b4:	49 f7       	brne	.-46     	; 0x288 <_Z20port_input_assistantcc+0x92>
     2b6:	00 e0       	ldi	r16, 0x00	; 0
     2b8:	10 e0       	ldi	r17, 0x00	; 0
     2ba:	40 e0       	ldi	r20, 0x00	; 0
     2bc:	82 e0       	ldi	r24, 0x02	; 2
     2be:	c8 2e       	mov	r12, r24
     2c0:	d1 2c       	mov	r13, r1
     2c2:	0e 15       	cp	r16, r14
     2c4:	1f 05       	cpc	r17, r15
     2c6:	a9 f0       	breq	.+42     	; 0x2f2 <_Z20port_input_assistantcc+0xfc>
     2c8:	80 81       	ld	r24, Z
     2ca:	32 96       	adiw	r30, 0x02	; 2
     2cc:	b9 01       	movw	r22, r18
     2ce:	02 c0       	rjmp	.+4      	; 0x2d4 <_Z20port_input_assistantcc+0xde>
     2d0:	75 95       	asr	r23
     2d2:	67 95       	ror	r22
     2d4:	8a 95       	dec	r24
     2d6:	e2 f7       	brpl	.-8      	; 0x2d0 <_Z20port_input_assistantcc+0xda>
     2d8:	cb 01       	movw	r24, r22
     2da:	b6 01       	movw	r22, r12
     2dc:	0e 94 f2 12 	call	0x25e4	; 0x25e4 <__divmodhi4>
     2e0:	00 2e       	mov	r0, r16
     2e2:	01 c0       	rjmp	.+2      	; 0x2e6 <_Z20port_input_assistantcc+0xf0>
     2e4:	88 0f       	add	r24, r24
     2e6:	0a 94       	dec	r0
     2e8:	ea f7       	brpl	.-6      	; 0x2e4 <_Z20port_input_assistantcc+0xee>
     2ea:	48 2b       	or	r20, r24
     2ec:	0f 5f       	subi	r16, 0xFF	; 255
     2ee:	1f 4f       	sbci	r17, 0xFF	; 255
     2f0:	e8 cf       	rjmp	.-48     	; 0x2c2 <_Z20port_input_assistantcc+0xcc>
     2f2:	84 2f       	mov	r24, r20
     2f4:	90 e0       	ldi	r25, 0x00	; 0
     2f6:	60 96       	adiw	r28, 0x10	; 16
     2f8:	0f b6       	in	r0, 0x3f	; 63
     2fa:	f8 94       	cli
     2fc:	de bf       	out	0x3e, r29	; 62
     2fe:	0f be       	out	0x3f, r0	; 63
     300:	cd bf       	out	0x3d, r28	; 61
     302:	df 91       	pop	r29
     304:	cf 91       	pop	r28
     306:	1f 91       	pop	r17
     308:	0f 91       	pop	r16
     30a:	ff 90       	pop	r15
     30c:	ef 90       	pop	r14
     30e:	df 90       	pop	r13
     310:	cf 90       	pop	r12
     312:	08 95       	ret

00000314 <_Z21port_output_assistantccc>:
     314:	86 34       	cpi	r24, 0x46	; 70
     316:	59 f1       	breq	.+86     	; 0x36e <_Z21port_output_assistantccc+0x5a>
     318:	68 f4       	brcc	.+26     	; 0x334 <_Z21port_output_assistantccc+0x20>
     31a:	83 34       	cpi	r24, 0x43	; 67
     31c:	f9 f0       	breq	.+62     	; 0x35c <_Z21port_output_assistantccc+0x48>
     31e:	28 f4       	brcc	.+10     	; 0x32a <_Z21port_output_assistantccc+0x16>
     320:	81 34       	cpi	r24, 0x41	; 65
     322:	b1 f0       	breq	.+44     	; 0x350 <_Z21port_output_assistantccc+0x3c>
     324:	82 34       	cpi	r24, 0x42	; 66
     326:	b9 f0       	breq	.+46     	; 0x356 <_Z21port_output_assistantccc+0x42>
     328:	08 95       	ret
     32a:	84 34       	cpi	r24, 0x44	; 68
     32c:	d1 f0       	breq	.+52     	; 0x362 <_Z21port_output_assistantccc+0x4e>
     32e:	85 34       	cpi	r24, 0x45	; 69
     330:	d9 f0       	breq	.+54     	; 0x368 <_Z21port_output_assistantccc+0x54>
     332:	08 95       	ret
     334:	83 36       	cpi	r24, 0x63	; 99
     336:	91 f0       	breq	.+36     	; 0x35c <_Z21port_output_assistantccc+0x48>
     338:	28 f4       	brcc	.+10     	; 0x344 <_Z21port_output_assistantccc+0x30>
     33a:	81 36       	cpi	r24, 0x61	; 97
     33c:	49 f0       	breq	.+18     	; 0x350 <_Z21port_output_assistantccc+0x3c>
     33e:	82 36       	cpi	r24, 0x62	; 98
     340:	51 f0       	breq	.+20     	; 0x356 <_Z21port_output_assistantccc+0x42>
     342:	08 95       	ret
     344:	85 36       	cpi	r24, 0x65	; 101
     346:	81 f0       	breq	.+32     	; 0x368 <_Z21port_output_assistantccc+0x54>
     348:	60 f0       	brcs	.+24     	; 0x362 <_Z21port_output_assistantccc+0x4e>
     34a:	86 36       	cpi	r24, 0x66	; 102
     34c:	81 f0       	breq	.+32     	; 0x36e <_Z21port_output_assistantccc+0x5a>
     34e:	08 95       	ret
     350:	64 23       	and	r22, r20
     352:	6b bb       	out	0x1b, r22	; 27
     354:	08 95       	ret
     356:	64 23       	and	r22, r20
     358:	68 bb       	out	0x18, r22	; 24
     35a:	08 95       	ret
     35c:	64 23       	and	r22, r20
     35e:	65 bb       	out	0x15, r22	; 21
     360:	08 95       	ret
     362:	64 23       	and	r22, r20
     364:	62 bb       	out	0x12, r22	; 18
     366:	08 95       	ret
     368:	64 23       	and	r22, r20
     36a:	63 b9       	out	0x03, r22	; 3
     36c:	08 95       	ret
     36e:	64 23       	and	r22, r20
     370:	60 93 62 00 	sts	0x0062, r22	; 0x800062 <__TEXT_REGION_LENGTH__+0x7e0062>
     374:	08 95       	ret

00000376 <_Z12bit_analysisii>:
     376:	5f 92       	push	r5
     378:	6f 92       	push	r6
     37a:	7f 92       	push	r7
     37c:	8f 92       	push	r8
     37e:	9f 92       	push	r9
     380:	af 92       	push	r10
     382:	bf 92       	push	r11
     384:	cf 92       	push	r12
     386:	df 92       	push	r13
     388:	ef 92       	push	r14
     38a:	ff 92       	push	r15
     38c:	0f 93       	push	r16
     38e:	1f 93       	push	r17
     390:	cf 93       	push	r28
     392:	df 93       	push	r29
     394:	8c 01       	movw	r16, r24
     396:	6b 01       	movw	r12, r22
     398:	05 df       	rcall	.-502    	; 0x1a4 <_Z18find_coupled_nuberi>
     39a:	c8 2f       	mov	r28, r24
     39c:	85 36       	cpi	r24, 0x65	; 101
     39e:	09 f4       	brne	.+2      	; 0x3a2 <_Z12bit_analysisii+0x2c>
     3a0:	90 c0       	rjmp	.+288    	; 0x4c2 <__LOCK_REGION_LENGTH__+0xc2>
     3a2:	c6 01       	movw	r24, r12
     3a4:	ff de       	rcall	.-514    	; 0x1a4 <_Z18find_coupled_nuberi>
     3a6:	85 36       	cpi	r24, 0x65	; 101
     3a8:	09 f4       	brne	.+2      	; 0x3ac <_Z12bit_analysisii+0x36>
     3aa:	99 c0       	rjmp	.+306    	; 0x4de <__LOCK_REGION_LENGTH__+0xde>
     3ac:	c8 01       	movw	r24, r16
     3ae:	95 95       	asr	r25
     3b0:	87 95       	ror	r24
     3b2:	95 95       	asr	r25
     3b4:	87 95       	ror	r24
     3b6:	98 2e       	mov	r9, r24
     3b8:	f6 01       	movw	r30, r12
     3ba:	f5 95       	asr	r31
     3bc:	e7 95       	ror	r30
     3be:	f5 95       	asr	r31
     3c0:	e7 95       	ror	r30
     3c2:	6e 2e       	mov	r6, r30
     3c4:	8c 17       	cp	r24, r28
     3c6:	09 f4       	brne	.+2      	; 0x3ca <_Z12bit_analysisii+0x54>
     3c8:	7e c0       	rjmp	.+252    	; 0x4c6 <__LOCK_REGION_LENGTH__+0xc6>
     3ca:	8e 27       	eor	r24, r30
     3cc:	55 24       	eor	r5, r5
     3ce:	53 94       	inc	r5
     3d0:	81 30       	cpi	r24, 0x01	; 1
     3d2:	09 f4       	brne	.+2      	; 0x3d6 <_Z12bit_analysisii+0x60>
     3d4:	78 c0       	rjmp	.+240    	; 0x4c6 <__LOCK_REGION_LENGTH__+0xc6>
     3d6:	24 e0       	ldi	r18, 0x04	; 4
     3d8:	30 e0       	ldi	r19, 0x00	; 0
     3da:	c8 01       	movw	r24, r16
     3dc:	b9 01       	movw	r22, r18
     3de:	0e 94 f2 12 	call	0x25e4	; 0x25e4 <__divmodhi4>
     3e2:	7c 01       	movw	r14, r24
     3e4:	f5 94       	asr	r15
     3e6:	e7 94       	ror	r14
     3e8:	8e 2c       	mov	r8, r14
     3ea:	c6 01       	movw	r24, r12
     3ec:	b9 01       	movw	r22, r18
     3ee:	0e 94 f2 12 	call	0x25e4	; 0x25e4 <__divmodhi4>
     3f2:	5c 01       	movw	r10, r24
     3f4:	b5 94       	asr	r11
     3f6:	a7 94       	ror	r10
     3f8:	7a 2c       	mov	r7, r10
     3fa:	c6 01       	movw	r24, r12
     3fc:	62 e0       	ldi	r22, 0x02	; 2
     3fe:	70 e0       	ldi	r23, 0x00	; 0
     400:	0e 94 f2 12 	call	0x25e4	; 0x25e4 <__divmodhi4>
     404:	d8 2e       	mov	r13, r24
     406:	c8 2e       	mov	r12, r24
     408:	dc 2f       	mov	r29, r28
     40a:	da 25       	eor	r29, r10
     40c:	4c 2f       	mov	r20, r28
     40e:	48 27       	eor	r20, r24
     410:	2d 2f       	mov	r18, r29
     412:	30 e0       	ldi	r19, 0x00	; 0
     414:	22 0f       	add	r18, r18
     416:	33 1f       	adc	r19, r19
     418:	83 e0       	ldi	r24, 0x03	; 3
     41a:	48 9f       	mul	r20, r24
     41c:	20 0d       	add	r18, r0
     41e:	31 1d       	adc	r19, r1
     420:	11 24       	eor	r1, r1
     422:	52 9e       	mul	r5, r18
     424:	20 2d       	mov	r18, r0
     426:	11 24       	eor	r1, r1
     428:	ec 16       	cp	r14, r28
     42a:	09 f4       	brne	.+2      	; 0x42e <__LOCK_REGION_LENGTH__+0x2e>
     42c:	4e c0       	rjmp	.+156    	; 0x4ca <__LOCK_REGION_LENGTH__+0xca>
     42e:	8a 2d       	mov	r24, r10
     430:	8e 25       	eor	r24, r14
     432:	91 e0       	ldi	r25, 0x01	; 1
     434:	81 30       	cpi	r24, 0x01	; 1
     436:	09 f4       	brne	.+2      	; 0x43a <__LOCK_REGION_LENGTH__+0x3a>
     438:	48 c0       	rjmp	.+144    	; 0x4ca <__LOCK_REGION_LENGTH__+0xca>
     43a:	3c 2f       	mov	r19, r28
     43c:	3e 27       	eor	r19, r30
     43e:	50 e0       	ldi	r21, 0x00	; 0
     440:	44 0f       	add	r20, r20
     442:	55 1f       	adc	r21, r21
     444:	a3 e0       	ldi	r26, 0x03	; 3
     446:	3a 9f       	mul	r19, r26
     448:	40 0d       	add	r20, r0
     44a:	51 1d       	adc	r21, r1
     44c:	11 24       	eor	r1, r1
     44e:	94 9f       	mul	r25, r20
     450:	20 0d       	add	r18, r0
     452:	11 24       	eor	r1, r1
     454:	9c 16       	cp	r9, r28
     456:	d9 f1       	breq	.+118    	; 0x4ce <__LOCK_REGION_LENGTH__+0xce>
     458:	e1 e0       	ldi	r30, 0x01	; 1
     45a:	96 14       	cp	r9, r6
     45c:	c1 f1       	breq	.+112    	; 0x4ce <__LOCK_REGION_LENGTH__+0xce>
     45e:	f0 e0       	ldi	r31, 0x00	; 0
     460:	8c 16       	cp	r8, r28
     462:	b9 f1       	breq	.+110    	; 0x4d2 <__LOCK_REGION_LENGTH__+0xd2>
     464:	41 e0       	ldi	r20, 0x01	; 1
     466:	87 14       	cp	r8, r7
     468:	a1 f1       	breq	.+104    	; 0x4d2 <__LOCK_REGION_LENGTH__+0xd2>
     46a:	c8 01       	movw	r24, r16
     46c:	62 e0       	ldi	r22, 0x02	; 2
     46e:	70 e0       	ldi	r23, 0x00	; 0
     470:	0e 94 f2 12 	call	0x25e4	; 0x25e4 <__divmodhi4>
     474:	98 2f       	mov	r25, r24
     476:	68 2f       	mov	r22, r24
     478:	df 01       	movw	r26, r30
     47a:	a4 0f       	add	r26, r20
     47c:	b1 1d       	adc	r27, r1
     47e:	ad 01       	movw	r20, r26
     480:	8c 17       	cp	r24, r28
     482:	49 f1       	breq	.+82     	; 0x4d6 <__LOCK_REGION_LENGTH__+0xd6>
     484:	81 e0       	ldi	r24, 0x01	; 1
     486:	9c 15       	cp	r25, r12
     488:	31 f1       	breq	.+76     	; 0x4d6 <__LOCK_REGION_LENGTH__+0xd6>
     48a:	48 0f       	add	r20, r24
     48c:	51 1d       	adc	r21, r1
     48e:	84 2f       	mov	r24, r20
     490:	88 0f       	add	r24, r24
     492:	48 0f       	add	r20, r24
     494:	84 2f       	mov	r24, r20
     496:	88 0f       	add	r24, r24
     498:	6c 17       	cp	r22, r28
     49a:	f9 f0       	breq	.+62     	; 0x4da <__LOCK_REGION_LENGTH__+0xda>
     49c:	9d 25       	eor	r25, r13
     49e:	41 e0       	ldi	r20, 0x01	; 1
     4a0:	91 30       	cpi	r25, 0x01	; 1
     4a2:	d9 f0       	breq	.+54     	; 0x4da <__LOCK_REGION_LENGTH__+0xda>
     4a4:	e3 2f       	mov	r30, r19
     4a6:	f0 e0       	ldi	r31, 0x00	; 0
     4a8:	ee 0f       	add	r30, r30
     4aa:	ff 1f       	adc	r31, r31
     4ac:	b3 e0       	ldi	r27, 0x03	; 3
     4ae:	db 9f       	mul	r29, r27
     4b0:	e0 0d       	add	r30, r0
     4b2:	f1 1d       	adc	r31, r1
     4b4:	11 24       	eor	r1, r1
     4b6:	82 0f       	add	r24, r18
     4b8:	4e 9f       	mul	r20, r30
     4ba:	80 0d       	add	r24, r0
     4bc:	11 24       	eor	r1, r1
     4be:	86 30       	cpi	r24, 0x06	; 6
     4c0:	71 f4       	brne	.+28     	; 0x4de <__LOCK_REGION_LENGTH__+0xde>
     4c2:	85 e6       	ldi	r24, 0x65	; 101
     4c4:	0c c0       	rjmp	.+24     	; 0x4de <__LOCK_REGION_LENGTH__+0xde>
     4c6:	51 2c       	mov	r5, r1
     4c8:	86 cf       	rjmp	.-244    	; 0x3d6 <_Z12bit_analysisii+0x60>
     4ca:	90 e0       	ldi	r25, 0x00	; 0
     4cc:	b6 cf       	rjmp	.-148    	; 0x43a <__LOCK_REGION_LENGTH__+0x3a>
     4ce:	e0 e0       	ldi	r30, 0x00	; 0
     4d0:	c6 cf       	rjmp	.-116    	; 0x45e <__LOCK_REGION_LENGTH__+0x5e>
     4d2:	40 e0       	ldi	r20, 0x00	; 0
     4d4:	ca cf       	rjmp	.-108    	; 0x46a <__LOCK_REGION_LENGTH__+0x6a>
     4d6:	80 e0       	ldi	r24, 0x00	; 0
     4d8:	d8 cf       	rjmp	.-80     	; 0x48a <__LOCK_REGION_LENGTH__+0x8a>
     4da:	40 e0       	ldi	r20, 0x00	; 0
     4dc:	e3 cf       	rjmp	.-58     	; 0x4a4 <__LOCK_REGION_LENGTH__+0xa4>
     4de:	df 91       	pop	r29
     4e0:	cf 91       	pop	r28
     4e2:	1f 91       	pop	r17
     4e4:	0f 91       	pop	r16
     4e6:	ff 90       	pop	r15
     4e8:	ef 90       	pop	r14
     4ea:	df 90       	pop	r13
     4ec:	cf 90       	pop	r12
     4ee:	bf 90       	pop	r11
     4f0:	af 90       	pop	r10
     4f2:	9f 90       	pop	r9
     4f4:	8f 90       	pop	r8
     4f6:	7f 90       	pop	r7
     4f8:	6f 90       	pop	r6
     4fa:	5f 90       	pop	r5
     4fc:	08 95       	ret

000004fe <_Z16sign_calculatingic>:
     4fe:	9c 01       	movw	r18, r24
     500:	61 30       	cpi	r22, 0x01	; 1
     502:	39 f0       	breq	.+14     	; 0x512 <_Z16sign_calculatingic+0x14>
     504:	40 f0       	brcs	.+16     	; 0x516 <_Z16sign_calculatingic+0x18>
     506:	62 30       	cpi	r22, 0x02	; 2
     508:	59 f0       	breq	.+22     	; 0x520 <_Z16sign_calculatingic+0x22>
     50a:	63 30       	cpi	r22, 0x03	; 3
     50c:	39 f4       	brne	.+14     	; 0x51c <_Z16sign_calculatingic+0x1e>
     50e:	90 e0       	ldi	r25, 0x00	; 0
     510:	08 c0       	rjmp	.+16     	; 0x522 <_Z16sign_calculatingic+0x24>
     512:	91 e0       	ldi	r25, 0x01	; 1
     514:	06 c0       	rjmp	.+12     	; 0x522 <_Z16sign_calculatingic+0x24>
     516:	80 e0       	ldi	r24, 0x00	; 0
     518:	90 e0       	ldi	r25, 0x00	; 0
     51a:	08 95       	ret
     51c:	95 e6       	ldi	r25, 0x65	; 101
     51e:	01 c0       	rjmp	.+2      	; 0x522 <_Z16sign_calculatingic+0x24>
     520:	9f ef       	ldi	r25, 0xFF	; 255
     522:	23 30       	cpi	r18, 0x03	; 3
     524:	31 05       	cpc	r19, r1
     526:	c1 f4       	brne	.+48     	; 0x558 <_Z16sign_calculatingic+0x5a>
     528:	25 e0       	ldi	r18, 0x05	; 5
     52a:	30 e0       	ldi	r19, 0x00	; 0
     52c:	05 c0       	rjmp	.+10     	; 0x538 <_Z16sign_calculatingic+0x3a>
     52e:	22 30       	cpi	r18, 0x02	; 2
     530:	31 05       	cpc	r19, r1
     532:	d9 f4       	brne	.+54     	; 0x56a <_Z16sign_calculatingic+0x6c>
     534:	26 e0       	ldi	r18, 0x06	; 6
     536:	30 e0       	ldi	r19, 0x00	; 0
     538:	a9 01       	movw	r20, r18
     53a:	49 0f       	add	r20, r25
     53c:	51 1d       	adc	r21, r1
     53e:	ca 01       	movw	r24, r20
     540:	66 e0       	ldi	r22, 0x06	; 6
     542:	70 e0       	ldi	r23, 0x00	; 0
     544:	0e 94 f2 12 	call	0x25e4	; 0x25e4 <__divmodhi4>
     548:	fc 01       	movw	r30, r24
     54a:	e4 5f       	subi	r30, 0xF4	; 244
     54c:	fe 4f       	sbci	r31, 0xFE	; 254
     54e:	80 81       	ld	r24, Z
     550:	08 2e       	mov	r0, r24
     552:	00 0c       	add	r0, r0
     554:	99 0b       	sbc	r25, r25
     556:	08 95       	ret
     558:	24 30       	cpi	r18, 0x04	; 4
     55a:	31 05       	cpc	r19, r1
     55c:	4c f4       	brge	.+18     	; 0x570 <_Z16sign_calculatingic+0x72>
     55e:	21 30       	cpi	r18, 0x01	; 1
     560:	31 05       	cpc	r19, r1
     562:	29 f7       	brne	.-54     	; 0x52e <_Z16sign_calculatingic+0x30>
     564:	24 e0       	ldi	r18, 0x04	; 4
     566:	30 e0       	ldi	r19, 0x00	; 0
     568:	e7 cf       	rjmp	.-50     	; 0x538 <_Z16sign_calculatingic+0x3a>
     56a:	85 e6       	ldi	r24, 0x65	; 101
     56c:	90 e0       	ldi	r25, 0x00	; 0
     56e:	08 95       	ret
     570:	25 30       	cpi	r18, 0x05	; 5
     572:	31 05       	cpc	r19, r1
     574:	49 f0       	breq	.+18     	; 0x588 <_Z16sign_calculatingic+0x8a>
     576:	5c f0       	brlt	.+22     	; 0x58e <_Z16sign_calculatingic+0x90>
     578:	26 30       	cpi	r18, 0x06	; 6
     57a:	31 05       	cpc	r19, r1
     57c:	b1 f7       	brne	.-20     	; 0x56a <_Z16sign_calculatingic+0x6c>
     57e:	89 2f       	mov	r24, r25
     580:	90 e0       	ldi	r25, 0x00	; 0
     582:	01 96       	adiw	r24, 0x01	; 1
     584:	b9 01       	movw	r22, r18
     586:	de cf       	rjmp	.-68     	; 0x544 <_Z16sign_calculatingic+0x46>
     588:	23 e0       	ldi	r18, 0x03	; 3
     58a:	30 e0       	ldi	r19, 0x00	; 0
     58c:	d5 cf       	rjmp	.-86     	; 0x538 <_Z16sign_calculatingic+0x3a>
     58e:	22 e0       	ldi	r18, 0x02	; 2
     590:	30 e0       	ldi	r19, 0x00	; 0
     592:	d2 cf       	rjmp	.-92     	; 0x538 <_Z16sign_calculatingic+0x3a>

00000594 <_Z26direction_value_clac_arg_2ii>:
     594:	00 97       	sbiw	r24, 0x00	; 0
     596:	a9 f4       	brne	.+42     	; 0x5c2 <_Z26direction_value_clac_arg_2ii+0x2e>
     598:	63 35       	cpi	r22, 0x53	; 83
     59a:	71 05       	cpc	r23, r1
     59c:	79 f0       	breq	.+30     	; 0x5bc <_Z26direction_value_clac_arg_2ii+0x28>
     59e:	24 f4       	brge	.+8      	; 0x5a8 <_Z26direction_value_clac_arg_2ii+0x14>
     5a0:	6e 34       	cpi	r22, 0x4E	; 78
     5a2:	71 05       	cpc	r23, r1
     5a4:	41 f0       	breq	.+16     	; 0x5b6 <_Z26direction_value_clac_arg_2ii+0x22>
     5a6:	13 c0       	rjmp	.+38     	; 0x5ce <_Z26direction_value_clac_arg_2ii+0x3a>
     5a8:	6e 36       	cpi	r22, 0x6E	; 110
     5aa:	71 05       	cpc	r23, r1
     5ac:	21 f0       	breq	.+8      	; 0x5b6 <_Z26direction_value_clac_arg_2ii+0x22>
     5ae:	63 37       	cpi	r22, 0x73	; 115
     5b0:	71 05       	cpc	r23, r1
     5b2:	21 f0       	breq	.+8      	; 0x5bc <_Z26direction_value_clac_arg_2ii+0x28>
     5b4:	0c c0       	rjmp	.+24     	; 0x5ce <_Z26direction_value_clac_arg_2ii+0x3a>
     5b6:	80 e0       	ldi	r24, 0x00	; 0
     5b8:	90 e0       	ldi	r25, 0x00	; 0
     5ba:	08 95       	ret
     5bc:	83 e0       	ldi	r24, 0x03	; 3
     5be:	90 e0       	ldi	r25, 0x00	; 0
     5c0:	08 95       	ret
     5c2:	18 16       	cp	r1, r24
     5c4:	19 06       	cpc	r1, r25
     5c6:	34 f0       	brlt	.+12     	; 0x5d4 <_Z26direction_value_clac_arg_2ii+0x40>
     5c8:	82 e0       	ldi	r24, 0x02	; 2
     5ca:	90 e0       	ldi	r25, 0x00	; 0
     5cc:	08 95       	ret
     5ce:	85 e6       	ldi	r24, 0x65	; 101
     5d0:	90 e0       	ldi	r25, 0x00	; 0
     5d2:	08 95       	ret
     5d4:	81 e0       	ldi	r24, 0x01	; 1
     5d6:	90 e0       	ldi	r25, 0x00	; 0
     5d8:	08 95       	ret

000005da <_Z27virtual_position_managementPli>:
     5da:	fc 01       	movw	r30, r24
     5dc:	61 30       	cpi	r22, 0x01	; 1
     5de:	71 05       	cpc	r23, r1
     5e0:	21 f0       	breq	.+8      	; 0x5ea <_Z27virtual_position_managementPli+0x10>
     5e2:	62 30       	cpi	r22, 0x02	; 2
     5e4:	71 05       	cpc	r23, r1
     5e6:	49 f0       	breq	.+18     	; 0x5fa <_Z27virtual_position_managementPli+0x20>
     5e8:	08 95       	ret
     5ea:	80 81       	ld	r24, Z
     5ec:	91 81       	ldd	r25, Z+1	; 0x01
     5ee:	a2 81       	ldd	r26, Z+2	; 0x02
     5f0:	b3 81       	ldd	r27, Z+3	; 0x03
     5f2:	01 96       	adiw	r24, 0x01	; 1
     5f4:	a1 1d       	adc	r26, r1
     5f6:	b1 1d       	adc	r27, r1
     5f8:	07 c0       	rjmp	.+14     	; 0x608 <_Z27virtual_position_managementPli+0x2e>
     5fa:	80 81       	ld	r24, Z
     5fc:	91 81       	ldd	r25, Z+1	; 0x01
     5fe:	a2 81       	ldd	r26, Z+2	; 0x02
     600:	b3 81       	ldd	r27, Z+3	; 0x03
     602:	01 97       	sbiw	r24, 0x01	; 1
     604:	a1 09       	sbc	r26, r1
     606:	b1 09       	sbc	r27, r1
     608:	80 83       	st	Z, r24
     60a:	91 83       	std	Z+1, r25	; 0x01
     60c:	a2 83       	std	Z+2, r26	; 0x02
     60e:	b3 83       	std	Z+3, r27	; 0x03
     610:	08 95       	ret

00000612 <_Z37combine_macroscopic_to_micro_orderingP10motor_listP13function_part>:
     612:	4f 92       	push	r4
     614:	5f 92       	push	r5
     616:	6f 92       	push	r6
     618:	7f 92       	push	r7
     61a:	af 92       	push	r10
     61c:	bf 92       	push	r11
     61e:	cf 92       	push	r12
     620:	df 92       	push	r13
     622:	ef 92       	push	r14
     624:	ff 92       	push	r15
     626:	0f 93       	push	r16
     628:	1f 93       	push	r17
     62a:	cf 93       	push	r28
     62c:	df 93       	push	r29
     62e:	ec 01       	movw	r28, r24
     630:	8b 01       	movw	r16, r22
     632:	fc 01       	movw	r30, r24
     634:	e4 5a       	subi	r30, 0xA4	; 164
     636:	fe 4f       	sbci	r31, 0xFE	; 254
     638:	40 80       	ld	r4, Z
     63a:	51 80       	ldd	r5, Z+1	; 0x01
     63c:	62 80       	ldd	r6, Z+2	; 0x02
     63e:	73 80       	ldd	r7, Z+3	; 0x03
     640:	3a 97       	sbiw	r30, 0x0a	; 10
     642:	dc 01       	movw	r26, r24
     644:	aa 5a       	subi	r26, 0xAA	; 170
     646:	be 4f       	sbci	r27, 0xFE	; 254
     648:	2d 91       	ld	r18, X+
     64a:	3d 91       	ld	r19, X+
     64c:	4d 91       	ld	r20, X+
     64e:	5c 91       	ld	r21, X
     650:	60 81       	ld	r22, Z
     652:	71 81       	ldd	r23, Z+1	; 0x01
     654:	82 81       	ldd	r24, Z+2	; 0x02
     656:	93 81       	ldd	r25, Z+3	; 0x03
     658:	0e 94 4f 10 	call	0x209e	; 0x209e <__divsf3>
     65c:	6b 01       	movw	r12, r22
     65e:	7c 01       	movw	r14, r24
     660:	5e 01       	movw	r10, r28
     662:	84 e7       	ldi	r24, 0x74	; 116
     664:	a8 1a       	sub	r10, r24
     666:	8e ef       	ldi	r24, 0xFE	; 254
     668:	b8 0a       	sbc	r11, r24
     66a:	fe 01       	movw	r30, r28
     66c:	e8 59       	subi	r30, 0x98	; 152
     66e:	fe 4f       	sbci	r31, 0xFE	; 254
     670:	a3 01       	movw	r20, r6
     672:	92 01       	movw	r18, r4
     674:	60 81       	ld	r22, Z
     676:	71 81       	ldd	r23, Z+1	; 0x01
     678:	82 81       	ldd	r24, Z+2	; 0x02
     67a:	93 81       	ldd	r25, Z+3	; 0x03
     67c:	0e 94 6a 0f 	call	0x1ed4	; 0x1ed4 <__subsf3>
     680:	a7 01       	movw	r20, r14
     682:	96 01       	movw	r18, r12
     684:	0e 94 2f 12 	call	0x245e	; 0x245e <__mulsf3>
     688:	a3 01       	movw	r20, r6
     68a:	92 01       	movw	r18, r4
     68c:	0e 94 6b 0f 	call	0x1ed6	; 0x1ed6 <__addsf3>
     690:	f5 01       	movw	r30, r10
     692:	60 83       	st	Z, r22
     694:	71 83       	std	Z+1, r23	; 0x01
     696:	82 83       	std	Z+2, r24	; 0x02
     698:	93 83       	std	Z+3, r25	; 0x03
     69a:	bc 97       	sbiw	r30, 0x2c	; 44
     69c:	40 80       	ld	r4, Z
     69e:	51 80       	ldd	r5, Z+1	; 0x01
     6a0:	62 80       	ldd	r6, Z+2	; 0x02
     6a2:	73 80       	ldd	r7, Z+3	; 0x03
     6a4:	5e 01       	movw	r10, r28
     6a6:	f0 e7       	ldi	r31, 0x70	; 112
     6a8:	af 1a       	sub	r10, r31
     6aa:	fe ef       	ldi	r31, 0xFE	; 254
     6ac:	bf 0a       	sbc	r11, r31
     6ae:	3c 96       	adiw	r30, 0x0c	; 12
     6b0:	a3 01       	movw	r20, r6
     6b2:	92 01       	movw	r18, r4
     6b4:	60 81       	ld	r22, Z
     6b6:	71 81       	ldd	r23, Z+1	; 0x01
     6b8:	82 81       	ldd	r24, Z+2	; 0x02
     6ba:	93 81       	ldd	r25, Z+3	; 0x03
     6bc:	0e 94 6a 0f 	call	0x1ed4	; 0x1ed4 <__subsf3>
     6c0:	a7 01       	movw	r20, r14
     6c2:	96 01       	movw	r18, r12
     6c4:	0e 94 2f 12 	call	0x245e	; 0x245e <__mulsf3>
     6c8:	a3 01       	movw	r20, r6
     6ca:	92 01       	movw	r18, r4
     6cc:	0e 94 6b 0f 	call	0x1ed6	; 0x1ed6 <__addsf3>
     6d0:	f5 01       	movw	r30, r10
     6d2:	60 83       	st	Z, r22
     6d4:	71 83       	std	Z+1, r23	; 0x01
     6d6:	82 83       	std	Z+2, r24	; 0x02
     6d8:	93 83       	std	Z+3, r25	; 0x03
     6da:	bc 97       	sbiw	r30, 0x2c	; 44
     6dc:	40 80       	ld	r4, Z
     6de:	51 80       	ldd	r5, Z+1	; 0x01
     6e0:	62 80       	ldd	r6, Z+2	; 0x02
     6e2:	73 80       	ldd	r7, Z+3	; 0x03
     6e4:	5e 01       	movw	r10, r28
     6e6:	fc e6       	ldi	r31, 0x6C	; 108
     6e8:	af 1a       	sub	r10, r31
     6ea:	fe ef       	ldi	r31, 0xFE	; 254
     6ec:	bf 0a       	sbc	r11, r31
     6ee:	c0 59       	subi	r28, 0x90	; 144
     6f0:	de 4f       	sbci	r29, 0xFE	; 254
     6f2:	a3 01       	movw	r20, r6
     6f4:	92 01       	movw	r18, r4
     6f6:	68 81       	ld	r22, Y
     6f8:	79 81       	ldd	r23, Y+1	; 0x01
     6fa:	8a 81       	ldd	r24, Y+2	; 0x02
     6fc:	9b 81       	ldd	r25, Y+3	; 0x03
     6fe:	0e 94 6a 0f 	call	0x1ed4	; 0x1ed4 <__subsf3>
     702:	a7 01       	movw	r20, r14
     704:	96 01       	movw	r18, r12
     706:	0e 94 2f 12 	call	0x245e	; 0x245e <__mulsf3>
     70a:	a3 01       	movw	r20, r6
     70c:	92 01       	movw	r18, r4
     70e:	0e 94 6b 0f 	call	0x1ed6	; 0x1ed6 <__addsf3>
     712:	f5 01       	movw	r30, r10
     714:	60 83       	st	Z, r22
     716:	71 83       	std	Z+1, r23	; 0x01
     718:	82 83       	std	Z+2, r24	; 0x02
     71a:	93 83       	std	Z+3, r25	; 0x03
     71c:	f8 01       	movw	r30, r16
     71e:	44 80       	ldd	r4, Z+4	; 0x04
     720:	55 80       	ldd	r5, Z+5	; 0x05
     722:	66 80       	ldd	r6, Z+6	; 0x06
     724:	77 80       	ldd	r7, Z+7	; 0x07
     726:	a3 01       	movw	r20, r6
     728:	92 01       	movw	r18, r4
     72a:	60 85       	ldd	r22, Z+8	; 0x08
     72c:	71 85       	ldd	r23, Z+9	; 0x09
     72e:	82 85       	ldd	r24, Z+10	; 0x0a
     730:	93 85       	ldd	r25, Z+11	; 0x0b
     732:	0e 94 6a 0f 	call	0x1ed4	; 0x1ed4 <__subsf3>
     736:	a7 01       	movw	r20, r14
     738:	96 01       	movw	r18, r12
     73a:	0e 94 2f 12 	call	0x245e	; 0x245e <__mulsf3>
     73e:	a3 01       	movw	r20, r6
     740:	92 01       	movw	r18, r4
     742:	0e 94 6b 0f 	call	0x1ed6	; 0x1ed6 <__addsf3>
     746:	f8 01       	movw	r30, r16
     748:	60 8b       	std	Z+16, r22	; 0x10
     74a:	71 8b       	std	Z+17, r23	; 0x11
     74c:	82 8b       	std	Z+18, r24	; 0x12
     74e:	93 8b       	std	Z+19, r25	; 0x13
     750:	44 88       	ldd	r4, Z+20	; 0x14
     752:	55 88       	ldd	r5, Z+21	; 0x15
     754:	66 88       	ldd	r6, Z+22	; 0x16
     756:	77 88       	ldd	r7, Z+23	; 0x17
     758:	a3 01       	movw	r20, r6
     75a:	92 01       	movw	r18, r4
     75c:	60 8d       	ldd	r22, Z+24	; 0x18
     75e:	71 8d       	ldd	r23, Z+25	; 0x19
     760:	82 8d       	ldd	r24, Z+26	; 0x1a
     762:	93 8d       	ldd	r25, Z+27	; 0x1b
     764:	0e 94 6a 0f 	call	0x1ed4	; 0x1ed4 <__subsf3>
     768:	a7 01       	movw	r20, r14
     76a:	96 01       	movw	r18, r12
     76c:	0e 94 2f 12 	call	0x245e	; 0x245e <__mulsf3>
     770:	a3 01       	movw	r20, r6
     772:	92 01       	movw	r18, r4
     774:	0e 94 6b 0f 	call	0x1ed6	; 0x1ed6 <__addsf3>
     778:	f8 01       	movw	r30, r16
     77a:	60 a3       	std	Z+32, r22	; 0x20
     77c:	71 a3       	std	Z+33, r23	; 0x21
     77e:	82 a3       	std	Z+34, r24	; 0x22
     780:	93 a3       	std	Z+35, r25	; 0x23
     782:	df 91       	pop	r29
     784:	cf 91       	pop	r28
     786:	1f 91       	pop	r17
     788:	0f 91       	pop	r16
     78a:	ff 90       	pop	r15
     78c:	ef 90       	pop	r14
     78e:	df 90       	pop	r13
     790:	cf 90       	pop	r12
     792:	bf 90       	pop	r11
     794:	af 90       	pop	r10
     796:	7f 90       	pop	r7
     798:	6f 90       	pop	r6
     79a:	5f 90       	pop	r5
     79c:	4f 90       	pop	r4
     79e:	08 95       	ret

000007a0 <_Z37function_part_position_transformationdddddPdS_S_>:
     7a0:	4f 92       	push	r4
     7a2:	5f 92       	push	r5
     7a4:	6f 92       	push	r6
     7a6:	7f 92       	push	r7
     7a8:	af 92       	push	r10
     7aa:	bf 92       	push	r11
     7ac:	cf 92       	push	r12
     7ae:	df 92       	push	r13
     7b0:	ef 92       	push	r14
     7b2:	ff 92       	push	r15
     7b4:	0f 93       	push	r16
     7b6:	1f 93       	push	r17
     7b8:	cf 93       	push	r28
     7ba:	df 93       	push	r29
     7bc:	cd b7       	in	r28, 0x3d	; 61
     7be:	de b7       	in	r29, 0x3e	; 62
     7c0:	60 97       	sbiw	r28, 0x10	; 16
     7c2:	0f b6       	in	r0, 0x3f	; 63
     7c4:	f8 94       	cli
     7c6:	de bf       	out	0x3e, r29	; 62
     7c8:	0f be       	out	0x3f, r0	; 63
     7ca:	cd bf       	out	0x3d, r28	; 61
     7cc:	2b 01       	movw	r4, r22
     7ce:	3c 01       	movw	r6, r24
     7d0:	2d 83       	std	Y+5, r18	; 0x05
     7d2:	3e 83       	std	Y+6, r19	; 0x06
     7d4:	4f 83       	std	Y+7, r20	; 0x07
     7d6:	58 87       	std	Y+8, r21	; 0x08
     7d8:	e9 86       	std	Y+9, r14	; 0x09
     7da:	fa 86       	std	Y+10, r15	; 0x0a
     7dc:	0b 87       	std	Y+11, r16	; 0x0b
     7de:	1c 87       	std	Y+12, r17	; 0x0c
     7e0:	2b ed       	ldi	r18, 0xDB	; 219
     7e2:	3f e0       	ldi	r19, 0x0F	; 15
     7e4:	49 ec       	ldi	r20, 0xC9	; 201
     7e6:	5f e3       	ldi	r21, 0x3F	; 63
     7e8:	0e 94 6a 0f 	call	0x1ed4	; 0x1ed4 <__subsf3>
     7ec:	9b 01       	movw	r18, r22
     7ee:	ac 01       	movw	r20, r24
     7f0:	0e 94 2f 12 	call	0x245e	; 0x245e <__mulsf3>
     7f4:	27 ee       	ldi	r18, 0xE7	; 231
     7f6:	39 ee       	ldi	r19, 0xE9	; 233
     7f8:	4d e1       	ldi	r20, 0x1D	; 29
     7fa:	50 e4       	ldi	r21, 0x40	; 64
     7fc:	0e 94 24 12 	call	0x2448	; 0x2448 <__gesf2>
     800:	18 16       	cp	r1, r24
     802:	0c f4       	brge	.+2      	; 0x806 <_Z37function_part_position_transformationdddddPdS_S_+0x66>
     804:	88 c0       	rjmp	.+272    	; 0x916 <_Z37function_part_position_transformationdddddPdS_S_+0x176>
     806:	20 e0       	ldi	r18, 0x00	; 0
     808:	30 e0       	ldi	r19, 0x00	; 0
     80a:	a9 01       	movw	r20, r18
     80c:	c6 01       	movw	r24, r12
     80e:	b5 01       	movw	r22, r10
     810:	0e 94 48 10 	call	0x2090	; 0x2090 <__cmpsf2>
     814:	88 23       	and	r24, r24
     816:	69 f0       	breq	.+26     	; 0x832 <_Z37function_part_position_transformationdddddPdS_S_+0x92>
     818:	29 85       	ldd	r18, Y+9	; 0x09
     81a:	3a 85       	ldd	r19, Y+10	; 0x0a
     81c:	4b 85       	ldd	r20, Y+11	; 0x0b
     81e:	5c 85       	ldd	r21, Y+12	; 0x0c
     820:	c6 01       	movw	r24, r12
     822:	b5 01       	movw	r22, r10
     824:	0e 94 f5 0f 	call	0x1fea	; 0x1fea <atan2>
     828:	69 83       	std	Y+1, r22	; 0x01
     82a:	7a 83       	std	Y+2, r23	; 0x02
     82c:	8b 83       	std	Y+3, r24	; 0x03
     82e:	9c 83       	std	Y+4, r25	; 0x04
     830:	04 c0       	rjmp	.+8      	; 0x83a <_Z37function_part_position_transformationdddddPdS_S_+0x9a>
     832:	19 82       	std	Y+1, r1	; 0x01
     834:	1a 82       	std	Y+2, r1	; 0x02
     836:	1b 82       	std	Y+3, r1	; 0x03
     838:	1c 82       	std	Y+4, r1	; 0x04
     83a:	2b ed       	ldi	r18, 0xDB	; 219
     83c:	3f e0       	ldi	r19, 0x0F	; 15
     83e:	49 e4       	ldi	r20, 0x49	; 73
     840:	50 e4       	ldi	r21, 0x40	; 64
     842:	c3 01       	movw	r24, r6
     844:	b2 01       	movw	r22, r4
     846:	0e 94 48 10 	call	0x2090	; 0x2090 <__cmpsf2>
     84a:	88 23       	and	r24, r24
     84c:	39 f0       	breq	.+14     	; 0x85c <_Z37function_part_position_transformationdddddPdS_S_+0xbc>
     84e:	c3 01       	movw	r24, r6
     850:	b2 01       	movw	r22, r4
     852:	0e 94 92 12 	call	0x2524	; 0x2524 <sin>
     856:	9b 01       	movw	r18, r22
     858:	ac 01       	movw	r20, r24
     85a:	03 c0       	rjmp	.+6      	; 0x862 <_Z37function_part_position_transformationdddddPdS_S_+0xc2>
     85c:	20 e0       	ldi	r18, 0x00	; 0
     85e:	30 e0       	ldi	r19, 0x00	; 0
     860:	a9 01       	movw	r20, r18
     862:	6d 81       	ldd	r22, Y+5	; 0x05
     864:	7e 81       	ldd	r23, Y+6	; 0x06
     866:	8f 81       	ldd	r24, Y+7	; 0x07
     868:	98 85       	ldd	r25, Y+8	; 0x08
     86a:	0e 94 2f 12 	call	0x245e	; 0x245e <__mulsf3>
     86e:	6d 87       	std	Y+13, r22	; 0x0d
     870:	7e 87       	std	Y+14, r23	; 0x0e
     872:	8f 87       	std	Y+15, r24	; 0x0f
     874:	98 8b       	std	Y+16, r25	; 0x10
     876:	69 81       	ldd	r22, Y+1	; 0x01
     878:	7a 81       	ldd	r23, Y+2	; 0x02
     87a:	8b 81       	ldd	r24, Y+3	; 0x03
     87c:	9c 81       	ldd	r25, Y+4	; 0x04
     87e:	0e 94 4c 10 	call	0x2098	; 0x2098 <cos>
     882:	9b 01       	movw	r18, r22
     884:	ac 01       	movw	r20, r24
     886:	6d 85       	ldd	r22, Y+13	; 0x0d
     888:	7e 85       	ldd	r23, Y+14	; 0x0e
     88a:	8f 85       	ldd	r24, Y+15	; 0x0f
     88c:	98 89       	ldd	r25, Y+16	; 0x10
     88e:	0e 94 2f 12 	call	0x245e	; 0x245e <__mulsf3>
     892:	9b 01       	movw	r18, r22
     894:	ac 01       	movw	r20, r24
     896:	69 85       	ldd	r22, Y+9	; 0x09
     898:	7a 85       	ldd	r23, Y+10	; 0x0a
     89a:	8b 85       	ldd	r24, Y+11	; 0x0b
     89c:	9c 85       	ldd	r25, Y+12	; 0x0c
     89e:	0e 94 6a 0f 	call	0x1ed4	; 0x1ed4 <__subsf3>
     8a2:	ed a1       	ldd	r30, Y+37	; 0x25
     8a4:	fe a1       	ldd	r31, Y+38	; 0x26
     8a6:	60 83       	st	Z, r22
     8a8:	71 83       	std	Z+1, r23	; 0x01
     8aa:	82 83       	std	Z+2, r24	; 0x02
     8ac:	93 83       	std	Z+3, r25	; 0x03
     8ae:	69 81       	ldd	r22, Y+1	; 0x01
     8b0:	7a 81       	ldd	r23, Y+2	; 0x02
     8b2:	8b 81       	ldd	r24, Y+3	; 0x03
     8b4:	9c 81       	ldd	r25, Y+4	; 0x04
     8b6:	0e 94 92 12 	call	0x2524	; 0x2524 <sin>
     8ba:	9b 01       	movw	r18, r22
     8bc:	ac 01       	movw	r20, r24
     8be:	6d 85       	ldd	r22, Y+13	; 0x0d
     8c0:	7e 85       	ldd	r23, Y+14	; 0x0e
     8c2:	8f 85       	ldd	r24, Y+15	; 0x0f
     8c4:	98 89       	ldd	r25, Y+16	; 0x10
     8c6:	0e 94 2f 12 	call	0x245e	; 0x245e <__mulsf3>
     8ca:	9b 01       	movw	r18, r22
     8cc:	ac 01       	movw	r20, r24
     8ce:	c6 01       	movw	r24, r12
     8d0:	b5 01       	movw	r22, r10
     8d2:	0e 94 6a 0f 	call	0x1ed4	; 0x1ed4 <__subsf3>
     8d6:	ef a1       	ldd	r30, Y+39	; 0x27
     8d8:	f8 a5       	ldd	r31, Y+40	; 0x28
     8da:	60 83       	st	Z, r22
     8dc:	71 83       	std	Z+1, r23	; 0x01
     8de:	82 83       	std	Z+2, r24	; 0x02
     8e0:	93 83       	std	Z+3, r25	; 0x03
     8e2:	c3 01       	movw	r24, r6
     8e4:	b2 01       	movw	r22, r4
     8e6:	0e 94 4c 10 	call	0x2098	; 0x2098 <cos>
     8ea:	9b 01       	movw	r18, r22
     8ec:	ac 01       	movw	r20, r24
     8ee:	6d 81       	ldd	r22, Y+5	; 0x05
     8f0:	7e 81       	ldd	r23, Y+6	; 0x06
     8f2:	8f 81       	ldd	r24, Y+7	; 0x07
     8f4:	98 85       	ldd	r25, Y+8	; 0x08
     8f6:	0e 94 2f 12 	call	0x245e	; 0x245e <__mulsf3>
     8fa:	9b 01       	movw	r18, r22
     8fc:	ac 01       	movw	r20, r24
     8fe:	69 a1       	ldd	r22, Y+33	; 0x21
     900:	7a a1       	ldd	r23, Y+34	; 0x22
     902:	8b a1       	ldd	r24, Y+35	; 0x23
     904:	9c a1       	ldd	r25, Y+36	; 0x24
     906:	0e 94 6a 0f 	call	0x1ed4	; 0x1ed4 <__subsf3>
     90a:	e9 a5       	ldd	r30, Y+41	; 0x29
     90c:	fa a5       	ldd	r31, Y+42	; 0x2a
     90e:	60 83       	st	Z, r22
     910:	71 83       	std	Z+1, r23	; 0x01
     912:	82 83       	std	Z+2, r24	; 0x02
     914:	93 83       	std	Z+3, r25	; 0x03
     916:	80 e0       	ldi	r24, 0x00	; 0
     918:	90 e0       	ldi	r25, 0x00	; 0
     91a:	60 96       	adiw	r28, 0x10	; 16
     91c:	0f b6       	in	r0, 0x3f	; 63
     91e:	f8 94       	cli
     920:	de bf       	out	0x3e, r29	; 62
     922:	0f be       	out	0x3f, r0	; 63
     924:	cd bf       	out	0x3d, r28	; 61
     926:	df 91       	pop	r29
     928:	cf 91       	pop	r28
     92a:	1f 91       	pop	r17
     92c:	0f 91       	pop	r16
     92e:	ff 90       	pop	r15
     930:	ef 90       	pop	r14
     932:	df 90       	pop	r13
     934:	cf 90       	pop	r12
     936:	bf 90       	pop	r11
     938:	af 90       	pop	r10
     93a:	7f 90       	pop	r7
     93c:	6f 90       	pop	r6
     93e:	5f 90       	pop	r5
     940:	4f 90       	pop	r4
     942:	08 95       	ret

00000944 <_Z26robot_4aix_arm_degree_clacP10motor_listdddddddPdS1_S1_S1_S1_>:
     944:	2f 92       	push	r2
     946:	3f 92       	push	r3
     948:	4f 92       	push	r4
     94a:	5f 92       	push	r5
     94c:	6f 92       	push	r6
     94e:	7f 92       	push	r7
     950:	8f 92       	push	r8
     952:	9f 92       	push	r9
     954:	af 92       	push	r10
     956:	bf 92       	push	r11
     958:	cf 92       	push	r12
     95a:	df 92       	push	r13
     95c:	ef 92       	push	r14
     95e:	ff 92       	push	r15
     960:	0f 93       	push	r16
     962:	1f 93       	push	r17
     964:	cf 93       	push	r28
     966:	df 93       	push	r29
     968:	cd b7       	in	r28, 0x3d	; 61
     96a:	de b7       	in	r29, 0x3e	; 62
     96c:	68 97       	sbiw	r28, 0x18	; 24
     96e:	0f b6       	in	r0, 0x3f	; 63
     970:	f8 94       	cli
     972:	de bf       	out	0x3e, r29	; 62
     974:	0f be       	out	0x3f, r0	; 63
     976:	cd bf       	out	0x3d, r28	; 61
     978:	1c 01       	movw	r2, r24
     97a:	49 87       	std	Y+9, r20	; 0x09
     97c:	5a 87       	std	Y+10, r21	; 0x0a
     97e:	6b 87       	std	Y+11, r22	; 0x0b
     980:	7c 87       	std	Y+12, r23	; 0x0c
     982:	0d 87       	std	Y+13, r16	; 0x0d
     984:	1e 87       	std	Y+14, r17	; 0x0e
     986:	2f 87       	std	Y+15, r18	; 0x0f
     988:	38 8b       	std	Y+16, r19	; 0x10
     98a:	c9 8a       	std	Y+17, r12	; 0x11
     98c:	da 8a       	std	Y+18, r13	; 0x12
     98e:	eb 8a       	std	Y+19, r14	; 0x13
     990:	fc 8a       	std	Y+20, r15	; 0x14
     992:	a5 01       	movw	r20, r10
     994:	94 01       	movw	r18, r8
     996:	c5 01       	movw	r24, r10
     998:	b4 01       	movw	r22, r8
     99a:	0e 94 2f 12 	call	0x245e	; 0x245e <__mulsf3>
     99e:	6b 01       	movw	r12, r22
     9a0:	7c 01       	movw	r14, r24
     9a2:	2d a5       	ldd	r18, Y+45	; 0x2d
     9a4:	3e a5       	ldd	r19, Y+46	; 0x2e
     9a6:	4f a5       	ldd	r20, Y+47	; 0x2f
     9a8:	58 a9       	ldd	r21, Y+48	; 0x30
     9aa:	ca 01       	movw	r24, r20
     9ac:	b9 01       	movw	r22, r18
     9ae:	0e 94 2f 12 	call	0x245e	; 0x245e <__mulsf3>
     9b2:	9b 01       	movw	r18, r22
     9b4:	ac 01       	movw	r20, r24
     9b6:	c7 01       	movw	r24, r14
     9b8:	b6 01       	movw	r22, r12
     9ba:	0e 94 6b 0f 	call	0x1ed6	; 0x1ed6 <__addsf3>
     9be:	2b 01       	movw	r4, r22
     9c0:	3c 01       	movw	r6, r24
     9c2:	29 a9       	ldd	r18, Y+49	; 0x31
     9c4:	3a a9       	ldd	r19, Y+50	; 0x32
     9c6:	4b a9       	ldd	r20, Y+51	; 0x33
     9c8:	5c a9       	ldd	r21, Y+52	; 0x34
     9ca:	ca 01       	movw	r24, r20
     9cc:	b9 01       	movw	r22, r18
     9ce:	0e 94 2f 12 	call	0x245e	; 0x245e <__mulsf3>
     9d2:	a3 01       	movw	r20, r6
     9d4:	92 01       	movw	r18, r4
     9d6:	0e 94 6b 0f 	call	0x1ed6	; 0x1ed6 <__addsf3>
     9da:	0e 94 9c 12 	call	0x2538	; 0x2538 <sqrt>
     9de:	6b 01       	movw	r12, r22
     9e0:	7c 01       	movw	r14, r24
     9e2:	a5 01       	movw	r20, r10
     9e4:	94 01       	movw	r18, r8
     9e6:	6d a5       	ldd	r22, Y+45	; 0x2d
     9e8:	7e a5       	ldd	r23, Y+46	; 0x2e
     9ea:	8f a5       	ldd	r24, Y+47	; 0x2f
     9ec:	98 a9       	ldd	r25, Y+48	; 0x30
     9ee:	0e 94 f5 0f 	call	0x1fea	; 0x1fea <atan2>
     9f2:	6d 8b       	std	Y+21, r22	; 0x15
     9f4:	7e 8b       	std	Y+22, r23	; 0x16
     9f6:	8f 8b       	std	Y+23, r24	; 0x17
     9f8:	98 8f       	std	Y+24, r25	; 0x18
     9fa:	c3 01       	movw	r24, r6
     9fc:	b2 01       	movw	r22, r4
     9fe:	0e 94 9c 12 	call	0x2538	; 0x2538 <sqrt>
     a02:	9b 01       	movw	r18, r22
     a04:	ac 01       	movw	r20, r24
     a06:	69 a9       	ldd	r22, Y+49	; 0x31
     a08:	7a a9       	ldd	r23, Y+50	; 0x32
     a0a:	8b a9       	ldd	r24, Y+51	; 0x33
     a0c:	9c a9       	ldd	r25, Y+52	; 0x34
     a0e:	0e 94 f5 0f 	call	0x1fea	; 0x1fea <atan2>
     a12:	9b 01       	movw	r18, r22
     a14:	ac 01       	movw	r20, r24
     a16:	6b ed       	ldi	r22, 0xDB	; 219
     a18:	7f e0       	ldi	r23, 0x0F	; 15
     a1a:	89 ec       	ldi	r24, 0xC9	; 201
     a1c:	9f e3       	ldi	r25, 0x3F	; 63
     a1e:	0e 94 6a 0f 	call	0x1ed4	; 0x1ed4 <__subsf3>
     a22:	69 83       	std	Y+1, r22	; 0x01
     a24:	7a 83       	std	Y+2, r23	; 0x02
     a26:	8b 83       	std	Y+3, r24	; 0x03
     a28:	9c 83       	std	Y+4, r25	; 0x04
     a2a:	0e 94 4c 10 	call	0x2098	; 0x2098 <cos>
     a2e:	2b 01       	movw	r4, r22
     a30:	3c 01       	movw	r6, r24
     a32:	29 85       	ldd	r18, Y+9	; 0x09
     a34:	3a 85       	ldd	r19, Y+10	; 0x0a
     a36:	4b 85       	ldd	r20, Y+11	; 0x0b
     a38:	5c 85       	ldd	r21, Y+12	; 0x0c
     a3a:	ca 01       	movw	r24, r20
     a3c:	b9 01       	movw	r22, r18
     a3e:	0e 94 2f 12 	call	0x245e	; 0x245e <__mulsf3>
     a42:	4b 01       	movw	r8, r22
     a44:	5c 01       	movw	r10, r24
     a46:	a7 01       	movw	r20, r14
     a48:	96 01       	movw	r18, r12
     a4a:	c7 01       	movw	r24, r14
     a4c:	b6 01       	movw	r22, r12
     a4e:	0e 94 2f 12 	call	0x245e	; 0x245e <__mulsf3>
     a52:	9b 01       	movw	r18, r22
     a54:	ac 01       	movw	r20, r24
     a56:	c5 01       	movw	r24, r10
     a58:	b4 01       	movw	r22, r8
     a5a:	0e 94 6b 0f 	call	0x1ed6	; 0x1ed6 <__addsf3>
     a5e:	4b 01       	movw	r8, r22
     a60:	5c 01       	movw	r10, r24
     a62:	29 85       	ldd	r18, Y+9	; 0x09
     a64:	3a 85       	ldd	r19, Y+10	; 0x0a
     a66:	4b 85       	ldd	r20, Y+11	; 0x0b
     a68:	5c 85       	ldd	r21, Y+12	; 0x0c
     a6a:	ca 01       	movw	r24, r20
     a6c:	b9 01       	movw	r22, r18
     a6e:	0e 94 6b 0f 	call	0x1ed6	; 0x1ed6 <__addsf3>
     a72:	a7 01       	movw	r20, r14
     a74:	96 01       	movw	r18, r12
     a76:	0e 94 2f 12 	call	0x245e	; 0x245e <__mulsf3>
     a7a:	a3 01       	movw	r20, r6
     a7c:	92 01       	movw	r18, r4
     a7e:	0e 94 2f 12 	call	0x245e	; 0x245e <__mulsf3>
     a82:	9b 01       	movw	r18, r22
     a84:	ac 01       	movw	r20, r24
     a86:	c5 01       	movw	r24, r10
     a88:	b4 01       	movw	r22, r8
     a8a:	0e 94 6a 0f 	call	0x1ed4	; 0x1ed4 <__subsf3>
     a8e:	0e 94 9c 12 	call	0x2538	; 0x2538 <sqrt>
     a92:	2b 01       	movw	r4, r22
     a94:	3c 01       	movw	r6, r24
     a96:	f1 01       	movw	r30, r2
     a98:	e0 58       	subi	r30, 0x80	; 128
     a9a:	fe 4f       	sbci	r31, 0xFE	; 254
     a9c:	80 81       	ld	r24, Z
     a9e:	91 81       	ldd	r25, Z+1	; 0x01
     aa0:	a2 81       	ldd	r26, Z+2	; 0x02
     aa2:	b3 81       	ldd	r27, Z+3	; 0x03
     aa4:	8d 83       	std	Y+5, r24	; 0x05
     aa6:	9e 83       	std	Y+6, r25	; 0x06
     aa8:	af 83       	std	Y+7, r26	; 0x07
     aaa:	b8 87       	std	Y+8, r27	; 0x08
     aac:	20 e0       	ldi	r18, 0x00	; 0
     aae:	30 e0       	ldi	r19, 0x00	; 0
     ab0:	a9 01       	movw	r20, r18
     ab2:	bc 01       	movw	r22, r24
     ab4:	cd 01       	movw	r24, r26
     ab6:	0e 94 48 10 	call	0x2090	; 0x2090 <__cmpsf2>
     aba:	81 11       	cpse	r24, r1
     abc:	22 c0       	rjmp	.+68     	; 0xb02 <_Z26robot_4aix_arm_degree_clacP10motor_listdddddddPdS1_S1_S1_S1_+0x1be>
     abe:	20 e0       	ldi	r18, 0x00	; 0
     ac0:	30 e0       	ldi	r19, 0x00	; 0
     ac2:	a9 01       	movw	r20, r18
     ac4:	f1 01       	movw	r30, r2
     ac6:	ec 57       	subi	r30, 0x7C	; 124
     ac8:	fe 4f       	sbci	r31, 0xFE	; 254
     aca:	60 81       	ld	r22, Z
     acc:	71 81       	ldd	r23, Z+1	; 0x01
     ace:	82 81       	ldd	r24, Z+2	; 0x02
     ad0:	93 81       	ldd	r25, Z+3	; 0x03
     ad2:	0e 94 48 10 	call	0x2090	; 0x2090 <__cmpsf2>
     ad6:	81 11       	cpse	r24, r1
     ad8:	14 c0       	rjmp	.+40     	; 0xb02 <_Z26robot_4aix_arm_degree_clacP10motor_listdddddddPdS1_S1_S1_S1_+0x1be>
     ada:	29 85       	ldd	r18, Y+9	; 0x09
     adc:	3a 85       	ldd	r19, Y+10	; 0x0a
     ade:	4b 85       	ldd	r20, Y+11	; 0x0b
     ae0:	5c 85       	ldd	r21, Y+12	; 0x0c
     ae2:	f1 01       	movw	r30, r2
     ae4:	e8 57       	subi	r30, 0x78	; 120
     ae6:	fe 4f       	sbci	r31, 0xFE	; 254
     ae8:	60 81       	ld	r22, Z
     aea:	71 81       	ldd	r23, Z+1	; 0x01
     aec:	82 81       	ldd	r24, Z+2	; 0x02
     aee:	93 81       	ldd	r25, Z+3	; 0x03
     af0:	0e 94 6a 0f 	call	0x1ed4	; 0x1ed4 <__subsf3>
     af4:	20 e0       	ldi	r18, 0x00	; 0
     af6:	30 e0       	ldi	r19, 0x00	; 0
     af8:	a9 01       	movw	r20, r18
     afa:	0e 94 48 10 	call	0x2090	; 0x2090 <__cmpsf2>
     afe:	88 23       	and	r24, r24
     b00:	81 f1       	breq	.+96     	; 0xb62 <_Z26robot_4aix_arm_degree_clacP10motor_listdddddddPdS1_S1_S1_S1_+0x21e>
     b02:	20 e0       	ldi	r18, 0x00	; 0
     b04:	30 e0       	ldi	r19, 0x00	; 0
     b06:	a9 01       	movw	r20, r18
     b08:	f1 01       	movw	r30, r2
     b0a:	e8 56       	subi	r30, 0x68	; 104
     b0c:	fe 4f       	sbci	r31, 0xFE	; 254
     b0e:	60 81       	ld	r22, Z
     b10:	71 81       	ldd	r23, Z+1	; 0x01
     b12:	82 81       	ldd	r24, Z+2	; 0x02
     b14:	93 81       	ldd	r25, Z+3	; 0x03
     b16:	0e 94 48 10 	call	0x2090	; 0x2090 <__cmpsf2>
     b1a:	81 11       	cpse	r24, r1
     b1c:	ce c0       	rjmp	.+412    	; 0xcba <_Z26robot_4aix_arm_degree_clacP10motor_listdddddddPdS1_S1_S1_S1_+0x376>
     b1e:	20 e0       	ldi	r18, 0x00	; 0
     b20:	30 e0       	ldi	r19, 0x00	; 0
     b22:	a9 01       	movw	r20, r18
     b24:	f1 01       	movw	r30, r2
     b26:	e4 56       	subi	r30, 0x64	; 100
     b28:	fe 4f       	sbci	r31, 0xFE	; 254
     b2a:	60 81       	ld	r22, Z
     b2c:	71 81       	ldd	r23, Z+1	; 0x01
     b2e:	82 81       	ldd	r24, Z+2	; 0x02
     b30:	93 81       	ldd	r25, Z+3	; 0x03
     b32:	0e 94 48 10 	call	0x2090	; 0x2090 <__cmpsf2>
     b36:	81 11       	cpse	r24, r1
     b38:	c0 c0       	rjmp	.+384    	; 0xcba <_Z26robot_4aix_arm_degree_clacP10motor_listdddddddPdS1_S1_S1_S1_+0x376>
     b3a:	29 85       	ldd	r18, Y+9	; 0x09
     b3c:	3a 85       	ldd	r19, Y+10	; 0x0a
     b3e:	4b 85       	ldd	r20, Y+11	; 0x0b
     b40:	5c 85       	ldd	r21, Y+12	; 0x0c
     b42:	f1 01       	movw	r30, r2
     b44:	e0 56       	subi	r30, 0x60	; 96
     b46:	fe 4f       	sbci	r31, 0xFE	; 254
     b48:	60 81       	ld	r22, Z
     b4a:	71 81       	ldd	r23, Z+1	; 0x01
     b4c:	82 81       	ldd	r24, Z+2	; 0x02
     b4e:	93 81       	ldd	r25, Z+3	; 0x03
     b50:	0e 94 6a 0f 	call	0x1ed4	; 0x1ed4 <__subsf3>
     b54:	20 e0       	ldi	r18, 0x00	; 0
     b56:	30 e0       	ldi	r19, 0x00	; 0
     b58:	a9 01       	movw	r20, r18
     b5a:	0e 94 48 10 	call	0x2090	; 0x2090 <__cmpsf2>
     b5e:	81 11       	cpse	r24, r1
     b60:	ac c0       	rjmp	.+344    	; 0xcba <_Z26robot_4aix_arm_degree_clacP10motor_listdddddddPdS1_S1_S1_S1_+0x376>
     b62:	f1 01       	movw	r30, r2
     b64:	ec 57       	subi	r30, 0x7C	; 124
     b66:	fe 4f       	sbci	r31, 0xFE	; 254
     b68:	80 81       	ld	r24, Z
     b6a:	91 81       	ldd	r25, Z+1	; 0x01
     b6c:	a2 81       	ldd	r26, Z+2	; 0x02
     b6e:	b3 81       	ldd	r27, Z+3	; 0x03
     b70:	8d 87       	std	Y+13, r24	; 0x0d
     b72:	9e 87       	std	Y+14, r25	; 0x0e
     b74:	af 87       	std	Y+15, r26	; 0x0f
     b76:	b8 8b       	std	Y+16, r27	; 0x10
     b78:	2d 81       	ldd	r18, Y+5	; 0x05
     b7a:	3e 81       	ldd	r19, Y+6	; 0x06
     b7c:	4f 81       	ldd	r20, Y+7	; 0x07
     b7e:	58 85       	ldd	r21, Y+8	; 0x08
     b80:	ca 01       	movw	r24, r20
     b82:	b9 01       	movw	r22, r18
     b84:	0e 94 2f 12 	call	0x245e	; 0x245e <__mulsf3>
     b88:	6b 01       	movw	r12, r22
     b8a:	7c 01       	movw	r14, r24
     b8c:	2d 85       	ldd	r18, Y+13	; 0x0d
     b8e:	3e 85       	ldd	r19, Y+14	; 0x0e
     b90:	4f 85       	ldd	r20, Y+15	; 0x0f
     b92:	58 89       	ldd	r21, Y+16	; 0x10
     b94:	ca 01       	movw	r24, r20
     b96:	b9 01       	movw	r22, r18
     b98:	0e 94 2f 12 	call	0x245e	; 0x245e <__mulsf3>
     b9c:	9b 01       	movw	r18, r22
     b9e:	ac 01       	movw	r20, r24
     ba0:	c7 01       	movw	r24, r14
     ba2:	b6 01       	movw	r22, r12
     ba4:	0e 94 6b 0f 	call	0x1ed6	; 0x1ed6 <__addsf3>
     ba8:	0e 94 9c 12 	call	0x2538	; 0x2538 <sqrt>
     bac:	4b 01       	movw	r8, r22
     bae:	5c 01       	movw	r10, r24
     bb0:	f1 01       	movw	r30, r2
     bb2:	e8 56       	subi	r30, 0x68	; 104
     bb4:	fe 4f       	sbci	r31, 0xFE	; 254
     bb6:	60 81       	ld	r22, Z
     bb8:	71 81       	ldd	r23, Z+1	; 0x01
     bba:	82 81       	ldd	r24, Z+2	; 0x02
     bbc:	93 81       	ldd	r25, Z+3	; 0x03
     bbe:	34 96       	adiw	r30, 0x04	; 4
     bc0:	c0 80       	ld	r12, Z
     bc2:	d1 80       	ldd	r13, Z+1	; 0x01
     bc4:	e2 80       	ldd	r14, Z+2	; 0x02
     bc6:	f3 80       	ldd	r15, Z+3	; 0x03
     bc8:	9b 01       	movw	r18, r22
     bca:	ac 01       	movw	r20, r24
     bcc:	0e 94 2f 12 	call	0x245e	; 0x245e <__mulsf3>
     bd0:	69 83       	std	Y+1, r22	; 0x01
     bd2:	7a 83       	std	Y+2, r23	; 0x02
     bd4:	8b 83       	std	Y+3, r24	; 0x03
     bd6:	9c 83       	std	Y+4, r25	; 0x04
     bd8:	a7 01       	movw	r20, r14
     bda:	96 01       	movw	r18, r12
     bdc:	c7 01       	movw	r24, r14
     bde:	b6 01       	movw	r22, r12
     be0:	0e 94 2f 12 	call	0x245e	; 0x245e <__mulsf3>
     be4:	9b 01       	movw	r18, r22
     be6:	ac 01       	movw	r20, r24
     be8:	69 81       	ldd	r22, Y+1	; 0x01
     bea:	7a 81       	ldd	r23, Y+2	; 0x02
     bec:	8b 81       	ldd	r24, Y+3	; 0x03
     bee:	9c 81       	ldd	r25, Y+4	; 0x04
     bf0:	0e 94 6b 0f 	call	0x1ed6	; 0x1ed6 <__addsf3>
     bf4:	0e 94 9c 12 	call	0x2538	; 0x2538 <sqrt>
     bf8:	a5 01       	movw	r20, r10
     bfa:	94 01       	movw	r18, r8
     bfc:	0e 94 6a 0f 	call	0x1ed4	; 0x1ed4 <__subsf3>
     c00:	4b 01       	movw	r8, r22
     c02:	5c 01       	movw	r10, r24
     c04:	f1 01       	movw	r30, r2
     c06:	e8 57       	subi	r30, 0x78	; 120
     c08:	fe 4f       	sbci	r31, 0xFE	; 254
     c0a:	80 81       	ld	r24, Z
     c0c:	91 81       	ldd	r25, Z+1	; 0x01
     c0e:	a2 81       	ldd	r26, Z+2	; 0x02
     c10:	b3 81       	ldd	r27, Z+3	; 0x03
     c12:	89 83       	std	Y+1, r24	; 0x01
     c14:	9a 83       	std	Y+2, r25	; 0x02
     c16:	ab 83       	std	Y+3, r26	; 0x03
     c18:	bc 83       	std	Y+4, r27	; 0x04
     c1a:	78 96       	adiw	r30, 0x18	; 24
     c1c:	9c 01       	movw	r18, r24
     c1e:	ad 01       	movw	r20, r26
     c20:	60 81       	ld	r22, Z
     c22:	71 81       	ldd	r23, Z+1	; 0x01
     c24:	82 81       	ldd	r24, Z+2	; 0x02
     c26:	93 81       	ldd	r25, Z+3	; 0x03
     c28:	0e 94 6a 0f 	call	0x1ed4	; 0x1ed4 <__subsf3>
     c2c:	6b 01       	movw	r12, r22
     c2e:	7c 01       	movw	r14, r24
     c30:	20 e0       	ldi	r18, 0x00	; 0
     c32:	30 e0       	ldi	r19, 0x00	; 0
     c34:	a9 01       	movw	r20, r18
     c36:	6d 81       	ldd	r22, Y+5	; 0x05
     c38:	7e 81       	ldd	r23, Y+6	; 0x06
     c3a:	8f 81       	ldd	r24, Y+7	; 0x07
     c3c:	98 85       	ldd	r25, Y+8	; 0x08
     c3e:	0e 94 48 10 	call	0x2090	; 0x2090 <__cmpsf2>
     c42:	81 11       	cpse	r24, r1
     c44:	21 c0       	rjmp	.+66     	; 0xc88 <_Z26robot_4aix_arm_degree_clacP10motor_listdddddddPdS1_S1_S1_S1_+0x344>
     c46:	20 e0       	ldi	r18, 0x00	; 0
     c48:	30 e0       	ldi	r19, 0x00	; 0
     c4a:	a9 01       	movw	r20, r18
     c4c:	6d 85       	ldd	r22, Y+13	; 0x0d
     c4e:	7e 85       	ldd	r23, Y+14	; 0x0e
     c50:	8f 85       	ldd	r24, Y+15	; 0x0f
     c52:	98 89       	ldd	r25, Y+16	; 0x10
     c54:	0e 94 48 10 	call	0x2090	; 0x2090 <__cmpsf2>
     c58:	81 11       	cpse	r24, r1
     c5a:	16 c0       	rjmp	.+44     	; 0xc88 <_Z26robot_4aix_arm_degree_clacP10motor_listdddddddPdS1_S1_S1_S1_+0x344>
     c5c:	29 85       	ldd	r18, Y+9	; 0x09
     c5e:	3a 85       	ldd	r19, Y+10	; 0x0a
     c60:	4b 85       	ldd	r20, Y+11	; 0x0b
     c62:	5c 85       	ldd	r21, Y+12	; 0x0c
     c64:	69 81       	ldd	r22, Y+1	; 0x01
     c66:	7a 81       	ldd	r23, Y+2	; 0x02
     c68:	8b 81       	ldd	r24, Y+3	; 0x03
     c6a:	9c 81       	ldd	r25, Y+4	; 0x04
     c6c:	0e 94 6a 0f 	call	0x1ed4	; 0x1ed4 <__subsf3>
     c70:	20 e0       	ldi	r18, 0x00	; 0
     c72:	30 e0       	ldi	r19, 0x00	; 0
     c74:	a9 01       	movw	r20, r18
     c76:	0e 94 48 10 	call	0x2090	; 0x2090 <__cmpsf2>
     c7a:	81 11       	cpse	r24, r1
     c7c:	05 c0       	rjmp	.+10     	; 0xc88 <_Z26robot_4aix_arm_degree_clacP10motor_listdddddddPdS1_S1_S1_S1_+0x344>
     c7e:	a5 01       	movw	r20, r10
     c80:	94 01       	movw	r18, r8
     c82:	c7 01       	movw	r24, r14
     c84:	b6 01       	movw	r22, r12
     c86:	06 c0       	rjmp	.+12     	; 0xc94 <_Z26robot_4aix_arm_degree_clacP10motor_listdddddddPdS1_S1_S1_S1_+0x350>
     c88:	a5 01       	movw	r20, r10
     c8a:	94 01       	movw	r18, r8
     c8c:	50 58       	subi	r21, 0x80	; 128
     c8e:	c7 01       	movw	r24, r14
     c90:	b6 01       	movw	r22, r12
     c92:	90 58       	subi	r25, 0x80	; 128
     c94:	0e 94 f5 0f 	call	0x1fea	; 0x1fea <atan2>
     c98:	2b ed       	ldi	r18, 0xDB	; 219
     c9a:	3f e0       	ldi	r19, 0x0F	; 15
     c9c:	49 ec       	ldi	r20, 0xC9	; 201
     c9e:	5f e3       	ldi	r21, 0x3F	; 63
     ca0:	0e 94 6b 0f 	call	0x1ed6	; 0x1ed6 <__addsf3>
     ca4:	6b 01       	movw	r12, r22
     ca6:	7c 01       	movw	r14, r24
     ca8:	9b ed       	ldi	r25, 0xDB	; 219
     caa:	89 2e       	mov	r8, r25
     cac:	9f e0       	ldi	r25, 0x0F	; 15
     cae:	99 2e       	mov	r9, r25
     cb0:	99 ec       	ldi	r25, 0xC9	; 201
     cb2:	a9 2e       	mov	r10, r25
     cb4:	9f e3       	ldi	r25, 0x3F	; 63
     cb6:	b9 2e       	mov	r11, r25
     cb8:	66 c0       	rjmp	.+204    	; 0xd86 <_Z26robot_4aix_arm_degree_clacP10motor_listdddddddPdS1_S1_S1_S1_+0x442>
     cba:	69 81       	ldd	r22, Y+1	; 0x01
     cbc:	7a 81       	ldd	r23, Y+2	; 0x02
     cbe:	8b 81       	ldd	r24, Y+3	; 0x03
     cc0:	9c 81       	ldd	r25, Y+4	; 0x04
     cc2:	0e 94 92 12 	call	0x2524	; 0x2524 <sin>
     cc6:	4b 01       	movw	r8, r22
     cc8:	5c 01       	movw	r10, r24
     cca:	a3 01       	movw	r20, r6
     ccc:	92 01       	movw	r18, r4
     cce:	c7 01       	movw	r24, r14
     cd0:	b6 01       	movw	r22, r12
     cd2:	0e 94 4f 10 	call	0x209e	; 0x209e <__divsf3>
     cd6:	a5 01       	movw	r20, r10
     cd8:	94 01       	movw	r18, r8
     cda:	0e 94 2f 12 	call	0x245e	; 0x245e <__mulsf3>
     cde:	6b 01       	movw	r12, r22
     ce0:	7c 01       	movw	r14, r24
     ce2:	20 e0       	ldi	r18, 0x00	; 0
     ce4:	30 e0       	ldi	r19, 0x00	; 0
     ce6:	40 e8       	ldi	r20, 0x80	; 128
     ce8:	5f e3       	ldi	r21, 0x3F	; 63
     cea:	0e 94 24 12 	call	0x2448	; 0x2448 <__gesf2>
     cee:	18 16       	cp	r1, r24
     cf0:	34 f4       	brge	.+12     	; 0xcfe <_Z26robot_4aix_arm_degree_clacP10motor_listdddddddPdS1_S1_S1_S1_+0x3ba>
     cf2:	c1 2c       	mov	r12, r1
     cf4:	d1 2c       	mov	r13, r1
     cf6:	80 e8       	ldi	r24, 0x80	; 128
     cf8:	e8 2e       	mov	r14, r24
     cfa:	8f e3       	ldi	r24, 0x3F	; 63
     cfc:	f8 2e       	mov	r15, r24
     cfe:	c7 01       	movw	r24, r14
     d00:	b6 01       	movw	r22, r12
     d02:	0e 94 cf 0f 	call	0x1f9e	; 0x1f9e <asin>
     d06:	6b 01       	movw	r12, r22
     d08:	7c 01       	movw	r14, r24
     d0a:	a3 01       	movw	r20, r6
     d0c:	92 01       	movw	r18, r4
     d0e:	c3 01       	movw	r24, r6
     d10:	b2 01       	movw	r22, r4
     d12:	0e 94 2f 12 	call	0x245e	; 0x245e <__mulsf3>
     d16:	4b 01       	movw	r8, r22
     d18:	5c 01       	movw	r10, r24
     d1a:	2d 85       	ldd	r18, Y+13	; 0x0d
     d1c:	3e 85       	ldd	r19, Y+14	; 0x0e
     d1e:	4f 85       	ldd	r20, Y+15	; 0x0f
     d20:	58 89       	ldd	r21, Y+16	; 0x10
     d22:	ca 01       	movw	r24, r20
     d24:	b9 01       	movw	r22, r18
     d26:	0e 94 2f 12 	call	0x245e	; 0x245e <__mulsf3>
     d2a:	9b 01       	movw	r18, r22
     d2c:	ac 01       	movw	r20, r24
     d2e:	c5 01       	movw	r24, r10
     d30:	b4 01       	movw	r22, r8
     d32:	0e 94 6b 0f 	call	0x1ed6	; 0x1ed6 <__addsf3>
     d36:	4b 01       	movw	r8, r22
     d38:	5c 01       	movw	r10, r24
     d3a:	29 89       	ldd	r18, Y+17	; 0x11
     d3c:	3a 89       	ldd	r19, Y+18	; 0x12
     d3e:	4b 89       	ldd	r20, Y+19	; 0x13
     d40:	5c 89       	ldd	r21, Y+20	; 0x14
     d42:	ca 01       	movw	r24, r20
     d44:	b9 01       	movw	r22, r18
     d46:	0e 94 2f 12 	call	0x245e	; 0x245e <__mulsf3>
     d4a:	9b 01       	movw	r18, r22
     d4c:	ac 01       	movw	r20, r24
     d4e:	c5 01       	movw	r24, r10
     d50:	b4 01       	movw	r22, r8
     d52:	0e 94 6a 0f 	call	0x1ed4	; 0x1ed4 <__subsf3>
     d56:	4b 01       	movw	r8, r22
     d58:	5c 01       	movw	r10, r24
     d5a:	a3 01       	movw	r20, r6
     d5c:	92 01       	movw	r18, r4
     d5e:	c3 01       	movw	r24, r6
     d60:	b2 01       	movw	r22, r4
     d62:	0e 94 6b 0f 	call	0x1ed6	; 0x1ed6 <__addsf3>
     d66:	2d 85       	ldd	r18, Y+13	; 0x0d
     d68:	3e 85       	ldd	r19, Y+14	; 0x0e
     d6a:	4f 85       	ldd	r20, Y+15	; 0x0f
     d6c:	58 89       	ldd	r21, Y+16	; 0x10
     d6e:	0e 94 2f 12 	call	0x245e	; 0x245e <__mulsf3>
     d72:	9b 01       	movw	r18, r22
     d74:	ac 01       	movw	r20, r24
     d76:	c5 01       	movw	r24, r10
     d78:	b4 01       	movw	r22, r8
     d7a:	0e 94 4f 10 	call	0x209e	; 0x209e <__divsf3>
     d7e:	0e 94 5c 0f 	call	0x1eb8	; 0x1eb8 <acos>
     d82:	4b 01       	movw	r8, r22
     d84:	5c 01       	movw	r10, r24
     d86:	a5 01       	movw	r20, r10
     d88:	94 01       	movw	r18, r8
     d8a:	c7 01       	movw	r24, r14
     d8c:	b6 01       	movw	r22, r12
     d8e:	0e 94 6b 0f 	call	0x1ed6	; 0x1ed6 <__addsf3>
     d92:	9b 01       	movw	r18, r22
     d94:	ac 01       	movw	r20, r24
     d96:	6b ed       	ldi	r22, 0xDB	; 219
     d98:	7f e0       	ldi	r23, 0x0F	; 15
     d9a:	89 e4       	ldi	r24, 0x49	; 73
     d9c:	90 e4       	ldi	r25, 0x40	; 64
     d9e:	0e 94 6a 0f 	call	0x1ed4	; 0x1ed4 <__subsf3>
     da2:	6b 01       	movw	r12, r22
     da4:	7c 01       	movw	r14, r24
     da6:	c5 01       	movw	r24, r10
     da8:	b4 01       	movw	r22, r8
     daa:	0e 94 92 12 	call	0x2524	; 0x2524 <sin>
     dae:	4b 01       	movw	r8, r22
     db0:	5c 01       	movw	r10, r24
     db2:	29 89       	ldd	r18, Y+17	; 0x11
     db4:	3a 89       	ldd	r19, Y+18	; 0x12
     db6:	4b 89       	ldd	r20, Y+19	; 0x13
     db8:	5c 89       	ldd	r21, Y+20	; 0x14
     dba:	c3 01       	movw	r24, r6
     dbc:	b2 01       	movw	r22, r4
     dbe:	0e 94 4f 10 	call	0x209e	; 0x209e <__divsf3>
     dc2:	a5 01       	movw	r20, r10
     dc4:	94 01       	movw	r18, r8
     dc6:	0e 94 2f 12 	call	0x245e	; 0x245e <__mulsf3>
     dca:	0e 94 cf 0f 	call	0x1f9e	; 0x1f9e <asin>
     dce:	9b 01       	movw	r18, r22
     dd0:	ac 01       	movw	r20, r24
     dd2:	6b ed       	ldi	r22, 0xDB	; 219
     dd4:	7f e0       	ldi	r23, 0x0F	; 15
     dd6:	89 e4       	ldi	r24, 0x49	; 73
     dd8:	90 e4       	ldi	r25, 0x40	; 64
     dda:	0e 94 6a 0f 	call	0x1ed4	; 0x1ed4 <__subsf3>
     dde:	4b 01       	movw	r8, r22
     de0:	5c 01       	movw	r10, r24
     de2:	9b 01       	movw	r18, r22
     de4:	ac 01       	movw	r20, r24
     de6:	c7 01       	movw	r24, r14
     de8:	b6 01       	movw	r22, r12
     dea:	0e 94 6b 0f 	call	0x1ed6	; 0x1ed6 <__addsf3>
     dee:	9b 01       	movw	r18, r22
     df0:	ac 01       	movw	r20, r24
     df2:	dc 01       	movw	r26, r24
     df4:	cb 01       	movw	r24, r22
     df6:	b0 58       	subi	r27, 0x80	; 128
     df8:	23 96       	adiw	r28, 0x03	; 3
     dfa:	ee ad       	ldd	r30, Y+62	; 0x3e
     dfc:	ff ad       	ldd	r31, Y+63	; 0x3f
     dfe:	23 97       	sbiw	r28, 0x03	; 3
     e00:	80 83       	st	Z, r24
     e02:	91 83       	std	Z+1, r25	; 0x01
     e04:	a2 83       	std	Z+2, r26	; 0x02
     e06:	b3 83       	std	Z+3, r27	; 0x03
     e08:	e9 ad       	ldd	r30, Y+57	; 0x39
     e0a:	fa ad       	ldd	r31, Y+58	; 0x3a
     e0c:	8d 89       	ldd	r24, Y+21	; 0x15
     e0e:	9e 89       	ldd	r25, Y+22	; 0x16
     e10:	af 89       	ldd	r26, Y+23	; 0x17
     e12:	b8 8d       	ldd	r27, Y+24	; 0x18
     e14:	80 83       	st	Z, r24
     e16:	91 83       	std	Z+1, r25	; 0x01
     e18:	a2 83       	std	Z+2, r26	; 0x02
     e1a:	b3 83       	std	Z+3, r27	; 0x03
     e1c:	eb ad       	ldd	r30, Y+59	; 0x3b
     e1e:	fc ad       	ldd	r31, Y+60	; 0x3c
     e20:	c0 82       	st	Z, r12
     e22:	d1 82       	std	Z+1, r13	; 0x01
     e24:	e2 82       	std	Z+2, r14	; 0x02
     e26:	f3 82       	std	Z+3, r15	; 0x03
     e28:	ed ad       	ldd	r30, Y+61	; 0x3d
     e2a:	fe ad       	ldd	r31, Y+62	; 0x3e
     e2c:	80 82       	st	Z, r8
     e2e:	91 82       	std	Z+1, r9	; 0x01
     e30:	a2 82       	std	Z+2, r10	; 0x02
     e32:	b3 82       	std	Z+3, r11	; 0x03
     e34:	6d a9       	ldd	r22, Y+53	; 0x35
     e36:	7e a9       	ldd	r23, Y+54	; 0x36
     e38:	8f a9       	ldd	r24, Y+55	; 0x37
     e3a:	98 ad       	ldd	r25, Y+56	; 0x38
     e3c:	0e 94 6a 0f 	call	0x1ed4	; 0x1ed4 <__subsf3>
     e40:	21 96       	adiw	r28, 0x01	; 1
     e42:	ee ad       	ldd	r30, Y+62	; 0x3e
     e44:	ff ad       	ldd	r31, Y+63	; 0x3f
     e46:	21 97       	sbiw	r28, 0x01	; 1
     e48:	60 83       	st	Z, r22
     e4a:	71 83       	std	Z+1, r23	; 0x01
     e4c:	82 83       	std	Z+2, r24	; 0x02
     e4e:	93 83       	std	Z+3, r25	; 0x03
     e50:	68 96       	adiw	r28, 0x18	; 24
     e52:	0f b6       	in	r0, 0x3f	; 63
     e54:	f8 94       	cli
     e56:	de bf       	out	0x3e, r29	; 62
     e58:	0f be       	out	0x3f, r0	; 63
     e5a:	cd bf       	out	0x3d, r28	; 61
     e5c:	df 91       	pop	r29
     e5e:	cf 91       	pop	r28
     e60:	1f 91       	pop	r17
     e62:	0f 91       	pop	r16
     e64:	ff 90       	pop	r15
     e66:	ef 90       	pop	r14
     e68:	df 90       	pop	r13
     e6a:	cf 90       	pop	r12
     e6c:	bf 90       	pop	r11
     e6e:	af 90       	pop	r10
     e70:	9f 90       	pop	r9
     e72:	8f 90       	pop	r8
     e74:	7f 90       	pop	r7
     e76:	6f 90       	pop	r6
     e78:	5f 90       	pop	r5
     e7a:	4f 90       	pop	r4
     e7c:	3f 90       	pop	r3
     e7e:	2f 90       	pop	r2
     e80:	08 95       	ret

00000e82 <_Z14degree_to_stepP10motor_listi>:
     e82:	ef 92       	push	r14
     e84:	ff 92       	push	r15
     e86:	0f 93       	push	r16
     e88:	1f 93       	push	r17
     e8a:	cf 93       	push	r28
     e8c:	df 93       	push	r29
     e8e:	ec 01       	movw	r28, r24
     e90:	7b 01       	movw	r14, r22
     e92:	00 e0       	ldi	r16, 0x00	; 0
     e94:	10 e0       	ldi	r17, 0x00	; 0
     e96:	0e 15       	cp	r16, r14
     e98:	1f 05       	cpc	r17, r15
     e9a:	fc f4       	brge	.+62     	; 0xeda <_Z14degree_to_stepP10motor_listi+0x58>
     e9c:	6a 81       	ldd	r22, Y+2	; 0x02
     e9e:	7b 81       	ldd	r23, Y+3	; 0x03
     ea0:	07 2e       	mov	r0, r23
     ea2:	00 0c       	add	r0, r0
     ea4:	88 0b       	sbc	r24, r24
     ea6:	99 0b       	sbc	r25, r25
     ea8:	0e 94 ea 10 	call	0x21d4	; 0x21d4 <__floatsisf>
     eac:	28 a9       	ldd	r18, Y+48	; 0x30
     eae:	39 a9       	ldd	r19, Y+49	; 0x31
     eb0:	4a a9       	ldd	r20, Y+50	; 0x32
     eb2:	5b a9       	ldd	r21, Y+51	; 0x33
     eb4:	0e 94 2f 12 	call	0x245e	; 0x245e <__mulsf3>
     eb8:	2b ed       	ldi	r18, 0xDB	; 219
     eba:	3f e0       	ldi	r19, 0x0F	; 15
     ebc:	49 ec       	ldi	r20, 0xC9	; 201
     ebe:	50 e4       	ldi	r21, 0x40	; 64
     ec0:	0e 94 4f 10 	call	0x209e	; 0x209e <__divsf3>
     ec4:	0e 94 b7 10 	call	0x216e	; 0x216e <__fixsfsi>
     ec8:	6c af       	std	Y+60, r22	; 0x3c
     eca:	7d af       	std	Y+61, r23	; 0x3d
     ecc:	8e af       	std	Y+62, r24	; 0x3e
     ece:	9f af       	std	Y+63, r25	; 0x3f
     ed0:	c0 5c       	subi	r28, 0xC0	; 192
     ed2:	df 4f       	sbci	r29, 0xFF	; 255
     ed4:	0f 5f       	subi	r16, 0xFF	; 255
     ed6:	1f 4f       	sbci	r17, 0xFF	; 255
     ed8:	de cf       	rjmp	.-68     	; 0xe96 <_Z14degree_to_stepP10motor_listi+0x14>
     eda:	df 91       	pop	r29
     edc:	cf 91       	pop	r28
     ede:	1f 91       	pop	r17
     ee0:	0f 91       	pop	r16
     ee2:	ff 90       	pop	r15
     ee4:	ef 90       	pop	r14
     ee6:	08 95       	ret

00000ee8 <_Z19ordering_trans_formP10motor_listP13function_part>:
     ee8:	6f 92       	push	r6
     eea:	7f 92       	push	r7
     eec:	8f 92       	push	r8
     eee:	9f 92       	push	r9
     ef0:	af 92       	push	r10
     ef2:	bf 92       	push	r11
     ef4:	cf 92       	push	r12
     ef6:	df 92       	push	r13
     ef8:	ef 92       	push	r14
     efa:	ff 92       	push	r15
     efc:	0f 93       	push	r16
     efe:	1f 93       	push	r17
     f00:	cf 93       	push	r28
     f02:	df 93       	push	r29
     f04:	ec 01       	movw	r28, r24
     f06:	3b 01       	movw	r6, r22
     f08:	fc 01       	movw	r30, r24
     f0a:	e0 57       	subi	r30, 0x70	; 112
     f0c:	fe 4f       	sbci	r31, 0xFE	; 254
     f0e:	a0 80       	ld	r10, Z
     f10:	b1 80       	ldd	r11, Z+1	; 0x01
     f12:	c2 80       	ldd	r12, Z+2	; 0x02
     f14:	d3 80       	ldd	r13, Z+3	; 0x03
     f16:	34 97       	sbiw	r30, 0x04	; 4
     f18:	e0 80       	ld	r14, Z
     f1a:	f1 80       	ldd	r15, Z+1	; 0x01
     f1c:	02 81       	ldd	r16, Z+2	; 0x02
     f1e:	13 81       	ldd	r17, Z+3	; 0x03
     f20:	fb 01       	movw	r30, r22
     f22:	20 81       	ld	r18, Z
     f24:	31 81       	ldd	r19, Z+1	; 0x01
     f26:	42 81       	ldd	r20, Z+2	; 0x02
     f28:	53 81       	ldd	r21, Z+3	; 0x03
     f2a:	60 89       	ldd	r22, Z+16	; 0x10
     f2c:	71 89       	ldd	r23, Z+17	; 0x11
     f2e:	82 89       	ldd	r24, Z+18	; 0x12
     f30:	93 89       	ldd	r25, Z+19	; 0x13
     f32:	e2 eb       	ldi	r30, 0xB2	; 178
     f34:	f2 e0       	ldi	r31, 0x02	; 2
     f36:	ff 93       	push	r31
     f38:	ef 93       	push	r30
     f3a:	ee ea       	ldi	r30, 0xAE	; 174
     f3c:	f2 e0       	ldi	r31, 0x02	; 2
     f3e:	ff 93       	push	r31
     f40:	ef 93       	push	r30
     f42:	ea ea       	ldi	r30, 0xAA	; 170
     f44:	f2 e0       	ldi	r31, 0x02	; 2
     f46:	ff 93       	push	r31
     f48:	ef 93       	push	r30
     f4a:	fe 01       	movw	r30, r28
     f4c:	ec 56       	subi	r30, 0x6C	; 108
     f4e:	fe 4f       	sbci	r31, 0xFE	; 254
     f50:	a3 81       	ldd	r26, Z+3	; 0x03
     f52:	af 93       	push	r26
     f54:	a2 81       	ldd	r26, Z+2	; 0x02
     f56:	af 93       	push	r26
     f58:	a1 81       	ldd	r26, Z+1	; 0x01
     f5a:	af 93       	push	r26
     f5c:	e0 81       	ld	r30, Z
     f5e:	ef 93       	push	r30
     f60:	1f dc       	rcall	.-1986   	; 0x7a0 <_Z37function_part_position_transformationdddddPdS_S_>
     f62:	fe 01       	movw	r30, r28
     f64:	e8 56       	subi	r30, 0x68	; 104
     f66:	fe 4f       	sbci	r31, 0xFE	; 254
     f68:	80 80       	ld	r8, Z
     f6a:	91 80       	ldd	r9, Z+1	; 0x01
     f6c:	a2 80       	ldd	r10, Z+2	; 0x02
     f6e:	b3 80       	ldd	r11, Z+3	; 0x03
     f70:	ee 54       	subi	r30, 0x4E	; 78
     f72:	f1 09       	sbc	r31, r1
     f74:	c0 80       	ld	r12, Z
     f76:	d1 80       	ldd	r13, Z+1	; 0x01
     f78:	e2 80       	ldd	r14, Z+2	; 0x02
     f7a:	f3 80       	ldd	r15, Z+3	; 0x03
     f7c:	34 97       	sbiw	r30, 0x04	; 4
     f7e:	00 81       	ld	r16, Z
     f80:	11 81       	ldd	r17, Z+1	; 0x01
     f82:	22 81       	ldd	r18, Z+2	; 0x02
     f84:	33 81       	ldd	r19, Z+3	; 0x03
     f86:	34 97       	sbiw	r30, 0x04	; 4
     f88:	40 81       	ld	r20, Z
     f8a:	51 81       	ldd	r21, Z+1	; 0x01
     f8c:	62 81       	ldd	r22, Z+2	; 0x02
     f8e:	73 81       	ldd	r23, Z+3	; 0x03
     f90:	ce 01       	movw	r24, r28
     f92:	8c 55       	subi	r24, 0x5C	; 92
     f94:	9e 4f       	sbci	r25, 0xFE	; 254
     f96:	9f 93       	push	r25
     f98:	8f 93       	push	r24
     f9a:	84 5b       	subi	r24, 0xB4	; 180
     f9c:	91 09       	sbc	r25, r1
     f9e:	9f 93       	push	r25
     fa0:	8f 93       	push	r24
     fa2:	80 54       	subi	r24, 0x40	; 64
     fa4:	91 09       	sbc	r25, r1
     fa6:	9f 93       	push	r25
     fa8:	8f 93       	push	r24
     faa:	80 54       	subi	r24, 0x40	; 64
     fac:	91 09       	sbc	r25, r1
     fae:	9f 93       	push	r25
     fb0:	8f 93       	push	r24
     fb2:	80 54       	subi	r24, 0x40	; 64
     fb4:	91 09       	sbc	r25, r1
     fb6:	9f 93       	push	r25
     fb8:	8f 93       	push	r24
     fba:	f3 01       	movw	r30, r6
     fbc:	83 89       	ldd	r24, Z+19	; 0x13
     fbe:	8f 93       	push	r24
     fc0:	82 89       	ldd	r24, Z+18	; 0x12
     fc2:	8f 93       	push	r24
     fc4:	81 89       	ldd	r24, Z+17	; 0x11
     fc6:	8f 93       	push	r24
     fc8:	80 89       	ldd	r24, Z+16	; 0x10
     fca:	8f 93       	push	r24
     fcc:	fe 01       	movw	r30, r28
     fce:	e0 56       	subi	r30, 0x60	; 96
     fd0:	fe 4f       	sbci	r31, 0xFE	; 254
     fd2:	83 81       	ldd	r24, Z+3	; 0x03
     fd4:	8f 93       	push	r24
     fd6:	82 81       	ldd	r24, Z+2	; 0x02
     fd8:	8f 93       	push	r24
     fda:	81 81       	ldd	r24, Z+1	; 0x01
     fdc:	8f 93       	push	r24
     fde:	80 81       	ld	r24, Z
     fe0:	8f 93       	push	r24
     fe2:	34 97       	sbiw	r30, 0x04	; 4
     fe4:	83 81       	ldd	r24, Z+3	; 0x03
     fe6:	8f 93       	push	r24
     fe8:	82 81       	ldd	r24, Z+2	; 0x02
     fea:	8f 93       	push	r24
     fec:	81 81       	ldd	r24, Z+1	; 0x01
     fee:	8f 93       	push	r24
     ff0:	80 81       	ld	r24, Z
     ff2:	8f 93       	push	r24
     ff4:	ce 01       	movw	r24, r28
     ff6:	a6 dc       	rcall	.-1716   	; 0x944 <_Z26robot_4aix_arm_degree_clacP10motor_listdddddddPdS1_S1_S1_S1_>
     ff8:	c0 5d       	subi	r28, 0xD0	; 208
     ffa:	de 4f       	sbci	r29, 0xFE	; 254
     ffc:	f3 01       	movw	r30, r6
     ffe:	80 a1       	ldd	r24, Z+32	; 0x20
    1000:	91 a1       	ldd	r25, Z+33	; 0x21
    1002:	a2 a1       	ldd	r26, Z+34	; 0x22
    1004:	b3 a1       	ldd	r27, Z+35	; 0x23
    1006:	88 83       	st	Y, r24
    1008:	99 83       	std	Y+1, r25	; 0x01
    100a:	aa 83       	std	Y+2, r26	; 0x02
    100c:	bb 83       	std	Y+3, r27	; 0x03
    100e:	8d b7       	in	r24, 0x3d	; 61
    1010:	9e b7       	in	r25, 0x3e	; 62
    1012:	80 96       	adiw	r24, 0x20	; 32
    1014:	0f b6       	in	r0, 0x3f	; 63
    1016:	f8 94       	cli
    1018:	9e bf       	out	0x3e, r25	; 62
    101a:	0f be       	out	0x3f, r0	; 63
    101c:	8d bf       	out	0x3d, r24	; 61
    101e:	65 e0       	ldi	r22, 0x05	; 5
    1020:	70 e0       	ldi	r23, 0x00	; 0
    1022:	82 e1       	ldi	r24, 0x12	; 18
    1024:	91 e0       	ldi	r25, 0x01	; 1
    1026:	df 91       	pop	r29
    1028:	cf 91       	pop	r28
    102a:	1f 91       	pop	r17
    102c:	0f 91       	pop	r16
    102e:	ff 90       	pop	r15
    1030:	ef 90       	pop	r14
    1032:	df 90       	pop	r13
    1034:	cf 90       	pop	r12
    1036:	bf 90       	pop	r11
    1038:	af 90       	pop	r10
    103a:	9f 90       	pop	r9
    103c:	8f 90       	pop	r8
    103e:	7f 90       	pop	r7
    1040:	6f 90       	pop	r6
    1042:	1f cf       	rjmp	.-450    	; 0xe82 <_Z14degree_to_stepP10motor_listi>

00001044 <_Z54rectangular_coordinates_microscopic_to_driver_orderingP10motor_list>:
    1044:	0f 93       	push	r16
    1046:	1f 93       	push	r17
    1048:	cf 93       	push	r28
    104a:	df 93       	push	r29
    104c:	ec 01       	movw	r28, r24
    104e:	8c 01       	movw	r16, r24
    1050:	00 5c       	subi	r16, 0xC0	; 192
    1052:	1e 4f       	sbci	r17, 0xFE	; 254
    1054:	6b 85       	ldd	r22, Y+11	; 0x0b
    1056:	70 e0       	ldi	r23, 0x00	; 0
    1058:	8c a9       	ldd	r24, Y+52	; 0x34
    105a:	9d a9       	ldd	r25, Y+53	; 0x35
    105c:	9b da       	rcall	.-2762   	; 0x594 <_Z26direction_value_clac_arg_2ii>
    105e:	8d 8b       	std	Y+21, r24	; 0x15
    1060:	c0 5c       	subi	r28, 0xC0	; 192
    1062:	df 4f       	sbci	r29, 0xFF	; 255
    1064:	c0 17       	cp	r28, r16
    1066:	d1 07       	cpc	r29, r17
    1068:	a9 f7       	brne	.-22     	; 0x1054 <_Z54rectangular_coordinates_microscopic_to_driver_orderingP10motor_list+0x10>
    106a:	df 91       	pop	r29
    106c:	cf 91       	pop	r28
    106e:	1f 91       	pop	r17
    1070:	0f 91       	pop	r16
    1072:	08 95       	ret

00001074 <_Z22output_safety_functioncc>:
    1074:	40 e0       	ldi	r20, 0x00	; 0
    1076:	4e d9       	rcall	.-3428   	; 0x314 <_Z21port_output_assistantccc>
    1078:	8f e1       	ldi	r24, 0x1F	; 31
    107a:	9e e4       	ldi	r25, 0x4E	; 78
    107c:	01 97       	sbiw	r24, 0x01	; 1
    107e:	f1 f7       	brne	.-4      	; 0x107c <_Z22output_safety_functioncc+0x8>
    1080:	00 c0       	rjmp	.+0      	; 0x1082 <_Z22output_safety_functioncc+0xe>
    1082:	00 00       	nop
    1084:	08 95       	ret

00001086 <_Z28step_motor_driving_open_loopccPcPl>:
    1086:	bf 92       	push	r11
    1088:	cf 92       	push	r12
    108a:	df 92       	push	r13
    108c:	ef 92       	push	r14
    108e:	ff 92       	push	r15
    1090:	0f 93       	push	r16
    1092:	1f 93       	push	r17
    1094:	cf 93       	push	r28
    1096:	df 93       	push	r29
    1098:	d8 2f       	mov	r29, r24
    109a:	b6 2e       	mov	r11, r22
    109c:	7a 01       	movw	r14, r20
    109e:	89 01       	movw	r16, r18
    10a0:	fa 01       	movw	r30, r20
    10a2:	80 81       	ld	r24, Z
    10a4:	84 30       	cpi	r24, 0x04	; 4
    10a6:	10 f5       	brcc	.+68     	; 0x10ec <_Z28step_motor_driving_open_loopccPcPl+0x66>
    10a8:	90 e0       	ldi	r25, 0x00	; 0
    10aa:	fc 01       	movw	r30, r24
    10ac:	ec 5f       	subi	r30, 0xFC	; 252
    10ae:	fe 4f       	sbci	r31, 0xFE	; 254
    10b0:	20 81       	ld	r18, Z
    10b2:	21 30       	cpi	r18, 0x01	; 1
    10b4:	d9 f4       	brne	.+54     	; 0x10ec <_Z28step_motor_driving_open_loopccPcPl+0x66>
    10b6:	fc 01       	movw	r30, r24
    10b8:	e8 5f       	subi	r30, 0xF8	; 248
    10ba:	fe 4f       	sbci	r31, 0xFE	; 254
    10bc:	c0 80       	ld	r12, Z
    10be:	f4 e0       	ldi	r31, 0x04	; 4
    10c0:	cf 9e       	mul	r12, r31
    10c2:	60 01       	movw	r12, r0
    10c4:	11 24       	eor	r1, r1
    10c6:	fc 01       	movw	r30, r24
    10c8:	e0 50       	subi	r30, 0x00	; 0
    10ca:	ff 4f       	sbci	r31, 0xFF	; 255
    10cc:	d0 80       	ld	r13, Z
    10ce:	cd 2d       	mov	r28, r13
    10d0:	c2 60       	ori	r28, 0x02	; 2
    10d2:	cc 29       	or	r28, r12
    10d4:	4c 2f       	mov	r20, r28
    10d6:	8d 2f       	mov	r24, r29
    10d8:	1d d9       	rcall	.-3526   	; 0x314 <_Z21port_output_assistantccc>
    10da:	84 e1       	ldi	r24, 0x14	; 20
    10dc:	90 e0       	ldi	r25, 0x00	; 0
    10de:	7c d8       	rcall	.-3848   	; 0x1d8 <_Z15delay_costom_msi>
    10e0:	4d 2d       	mov	r20, r13
    10e2:	4c 29       	or	r20, r12
    10e4:	4c 2b       	or	r20, r28
    10e6:	6b 2d       	mov	r22, r11
    10e8:	8d 2f       	mov	r24, r29
    10ea:	14 d9       	rcall	.-3544   	; 0x314 <_Z21port_output_assistantccc>
    10ec:	f7 01       	movw	r30, r14
    10ee:	60 81       	ld	r22, Z
    10f0:	70 e0       	ldi	r23, 0x00	; 0
    10f2:	c8 01       	movw	r24, r16
    10f4:	df 91       	pop	r29
    10f6:	cf 91       	pop	r28
    10f8:	1f 91       	pop	r17
    10fa:	0f 91       	pop	r16
    10fc:	ff 90       	pop	r15
    10fe:	ef 90       	pop	r14
    1100:	df 90       	pop	r13
    1102:	cf 90       	pop	r12
    1104:	bf 90       	pop	r11
    1106:	69 ca       	rjmp	.-2862   	; 0x5da <_Z27virtual_position_managementPli>

00001108 <_Z30bldc_motor_driving_closed_loopciPiS_Pc>:
    1108:	af 92       	push	r10
    110a:	bf 92       	push	r11
    110c:	cf 92       	push	r12
    110e:	df 92       	push	r13
    1110:	ef 92       	push	r14
    1112:	ff 92       	push	r15
    1114:	0f 93       	push	r16
    1116:	1f 93       	push	r17
    1118:	cf 93       	push	r28
    111a:	df 93       	push	r29
    111c:	c8 2f       	mov	r28, r24
    111e:	d6 2f       	mov	r29, r22
    1120:	6a 01       	movw	r12, r20
    1122:	59 01       	movw	r10, r18
    1124:	f6 01       	movw	r30, r12
    1126:	e0 80       	ld	r14, Z
    1128:	f1 80       	ldd	r15, Z+1	; 0x01
    112a:	b7 01       	movw	r22, r14
    112c:	f5 01       	movw	r30, r10
    112e:	80 81       	ld	r24, Z
    1130:	91 81       	ldd	r25, Z+1	; 0x01
    1132:	21 d9       	rcall	.-3518   	; 0x376 <_Z12bit_analysisii>
    1134:	81 11       	cpse	r24, r1
    1136:	09 c0       	rjmp	.+18     	; 0x114a <_Z30bldc_motor_driving_closed_loopciPiS_Pc+0x42>
    1138:	f8 01       	movw	r30, r16
    113a:	60 81       	ld	r22, Z
    113c:	c7 01       	movw	r24, r14
    113e:	df d9       	rcall	.-3138   	; 0x4fe <_Z16sign_calculatingic>
    1140:	48 2f       	mov	r20, r24
    1142:	6d 2f       	mov	r22, r29
    1144:	8c 2f       	mov	r24, r28
    1146:	e6 d8       	rcall	.-3636   	; 0x314 <_Z21port_output_assistantccc>
    1148:	ed cf       	rjmp	.-38     	; 0x1124 <_Z30bldc_motor_driving_closed_loopciPiS_Pc+0x1c>
    114a:	6d 2f       	mov	r22, r29
    114c:	8c 2f       	mov	r24, r28
    114e:	df 91       	pop	r29
    1150:	cf 91       	pop	r28
    1152:	1f 91       	pop	r17
    1154:	0f 91       	pop	r16
    1156:	ff 90       	pop	r15
    1158:	ef 90       	pop	r14
    115a:	df 90       	pop	r13
    115c:	cf 90       	pop	r12
    115e:	bf 90       	pop	r11
    1160:	af 90       	pop	r10
    1162:	88 cf       	rjmp	.-240    	; 0x1074 <_Z22output_safety_functioncc>

00001164 <_Z20general_motor_drivigiciPiS_PcPl>:
    1164:	cf 92       	push	r12
    1166:	df 92       	push	r13
    1168:	ef 92       	push	r14
    116a:	ff 92       	push	r15
    116c:	0f 93       	push	r16
    116e:	1f 93       	push	r17
    1170:	fc 01       	movw	r30, r24
    1172:	86 2f       	mov	r24, r22
    1174:	64 2f       	mov	r22, r20
    1176:	d9 01       	movw	r26, r18
    1178:	96 01       	movw	r18, r12
    117a:	e6 35       	cpi	r30, 0x56	; 86
    117c:	f1 05       	cpc	r31, r1
    117e:	f9 f0       	breq	.+62     	; 0x11be <_Z20general_motor_drivigiciPiS_PcPl+0x5a>
    1180:	3c f4       	brge	.+14     	; 0x1190 <_Z20general_motor_drivigiciPiS_PcPl+0x2c>
    1182:	e2 34       	cpi	r30, 0x42	; 66
    1184:	f1 05       	cpc	r31, r1
    1186:	69 f0       	breq	.+26     	; 0x11a2 <_Z20general_motor_drivigiciPiS_PcPl+0x3e>
    1188:	e3 35       	cpi	r30, 0x53	; 83
    118a:	f1 05       	cpc	r31, r1
    118c:	81 f0       	breq	.+32     	; 0x11ae <_Z20general_motor_drivigiciPiS_PcPl+0x4a>
    118e:	22 c0       	rjmp	.+68     	; 0x11d4 <_Z20general_motor_drivigiciPiS_PcPl+0x70>
    1190:	e3 37       	cpi	r30, 0x73	; 115
    1192:	f1 05       	cpc	r31, r1
    1194:	61 f0       	breq	.+24     	; 0x11ae <_Z20general_motor_drivigiciPiS_PcPl+0x4a>
    1196:	e6 37       	cpi	r30, 0x76	; 118
    1198:	f1 05       	cpc	r31, r1
    119a:	89 f0       	breq	.+34     	; 0x11be <_Z20general_motor_drivigiciPiS_PcPl+0x5a>
    119c:	e2 36       	cpi	r30, 0x62	; 98
    119e:	f1 05       	cpc	r31, r1
    11a0:	c9 f4       	brne	.+50     	; 0x11d4 <_Z20general_motor_drivigiciPiS_PcPl+0x70>
    11a2:	98 01       	movw	r18, r16
    11a4:	75 2f       	mov	r23, r21
    11a6:	87 01       	movw	r16, r14
    11a8:	ad 01       	movw	r20, r26
    11aa:	ae df       	rcall	.-164    	; 0x1108 <_Z30bldc_motor_driving_closed_loopciPiS_Pc>
    11ac:	13 c0       	rjmp	.+38     	; 0x11d4 <_Z20general_motor_drivigiciPiS_PcPl+0x70>
    11ae:	a7 01       	movw	r20, r14
    11b0:	1f 91       	pop	r17
    11b2:	0f 91       	pop	r16
    11b4:	ff 90       	pop	r15
    11b6:	ef 90       	pop	r14
    11b8:	df 90       	pop	r13
    11ba:	cf 90       	pop	r12
    11bc:	64 cf       	rjmp	.-312    	; 0x1086 <_Z28step_motor_driving_open_loopccPcPl>
    11be:	f7 01       	movw	r30, r14
    11c0:	60 81       	ld	r22, Z
    11c2:	70 e0       	ldi	r23, 0x00	; 0
    11c4:	c9 01       	movw	r24, r18
    11c6:	1f 91       	pop	r17
    11c8:	0f 91       	pop	r16
    11ca:	ff 90       	pop	r15
    11cc:	ef 90       	pop	r14
    11ce:	df 90       	pop	r13
    11d0:	cf 90       	pop	r12
    11d2:	03 ca       	rjmp	.-3066   	; 0x5da <_Z27virtual_position_managementPli>
    11d4:	1f 91       	pop	r17
    11d6:	0f 91       	pop	r16
    11d8:	ff 90       	pop	r15
    11da:	ef 90       	pop	r14
    11dc:	df 90       	pop	r13
    11de:	cf 90       	pop	r12
    11e0:	08 95       	ret

000011e2 <_Z25motor_combo_serise_drivigP10motor_listi>:
    11e2:	8f 92       	push	r8
    11e4:	9f 92       	push	r9
    11e6:	af 92       	push	r10
    11e8:	bf 92       	push	r11
    11ea:	cf 92       	push	r12
    11ec:	df 92       	push	r13
    11ee:	ef 92       	push	r14
    11f0:	ff 92       	push	r15
    11f2:	0f 93       	push	r16
    11f4:	1f 93       	push	r17
    11f6:	cf 93       	push	r28
    11f8:	df 93       	push	r29
    11fa:	ec 01       	movw	r28, r24
    11fc:	4b 01       	movw	r8, r22
    11fe:	a1 2c       	mov	r10, r1
    1200:	b1 2c       	mov	r11, r1
    1202:	a8 14       	cp	r10, r8
    1204:	b9 04       	cpc	r11, r9
    1206:	ec f4       	brge	.+58     	; 0x1242 <_Z25motor_combo_serise_drivigP10motor_listi+0x60>
    1208:	8b 8d       	ldd	r24, Y+27	; 0x1b
    120a:	8e 36       	cpi	r24, 0x6E	; 110
    120c:	a1 f4       	brne	.+40     	; 0x1236 <_Z25motor_combo_serise_drivigP10motor_listi+0x54>
    120e:	4f 81       	ldd	r20, Y+7	; 0x07
    1210:	58 85       	ldd	r21, Y+8	; 0x08
    1212:	6e 01       	movw	r12, r28
    1214:	88 e3       	ldi	r24, 0x38	; 56
    1216:	c8 0e       	add	r12, r24
    1218:	d1 1c       	adc	r13, r1
    121a:	7e 01       	movw	r14, r28
    121c:	85 e1       	ldi	r24, 0x15	; 21
    121e:	e8 0e       	add	r14, r24
    1220:	f1 1c       	adc	r15, r1
    1222:	8e 01       	movw	r16, r28
    1224:	0f 5e       	subi	r16, 0xEF	; 239
    1226:	1f 4f       	sbci	r17, 0xFF	; 255
    1228:	9e 01       	movw	r18, r28
    122a:	21 5f       	subi	r18, 0xF1	; 241
    122c:	3f 4f       	sbci	r19, 0xFF	; 255
    122e:	6e 81       	ldd	r22, Y+6	; 0x06
    1230:	88 81       	ld	r24, Y
    1232:	99 81       	ldd	r25, Y+1	; 0x01
    1234:	97 df       	rcall	.-210    	; 0x1164 <_Z20general_motor_drivigiciPiS_PcPl>
    1236:	c0 5c       	subi	r28, 0xC0	; 192
    1238:	df 4f       	sbci	r29, 0xFF	; 255
    123a:	8f ef       	ldi	r24, 0xFF	; 255
    123c:	a8 1a       	sub	r10, r24
    123e:	b8 0a       	sbc	r11, r24
    1240:	e0 cf       	rjmp	.-64     	; 0x1202 <_Z25motor_combo_serise_drivigP10motor_listi+0x20>
    1242:	df 91       	pop	r29
    1244:	cf 91       	pop	r28
    1246:	1f 91       	pop	r17
    1248:	0f 91       	pop	r16
    124a:	ff 90       	pop	r15
    124c:	ef 90       	pop	r14
    124e:	df 90       	pop	r13
    1250:	cf 90       	pop	r12
    1252:	bf 90       	pop	r11
    1254:	af 90       	pop	r10
    1256:	9f 90       	pop	r9
    1258:	8f 90       	pop	r8
    125a:	08 95       	ret

0000125c <_Z54rectangular_coordinate_macroscopic_compliment_checkingP10motor_listP13function_part>:
    125c:	ef 92       	push	r14
    125e:	ff 92       	push	r15
    1260:	0f 93       	push	r16
    1262:	1f 93       	push	r17
    1264:	cf 93       	push	r28
    1266:	df 93       	push	r29
    1268:	7c 01       	movw	r14, r24
    126a:	26 ea       	ldi	r18, 0xA6	; 166
    126c:	e2 1a       	sub	r14, r18
    126e:	2e ef       	ldi	r18, 0xFE	; 254
    1270:	f2 0a       	sbc	r15, r18
    1272:	f7 01       	movw	r30, r14
    1274:	20 81       	ld	r18, Z
    1276:	2e 36       	cpi	r18, 0x6E	; 110
    1278:	09 f0       	breq	.+2      	; 0x127c <_Z54rectangular_coordinate_macroscopic_compliment_checkingP10motor_listP13function_part+0x20>
    127a:	54 c0       	rjmp	.+168    	; 0x1324 <_Z54rectangular_coordinate_macroscopic_compliment_checkingP10motor_listP13function_part+0xc8>
    127c:	8b 01       	movw	r16, r22
    127e:	ec 01       	movw	r28, r24
    1280:	38 97       	sbiw	r30, 0x08	; 8
    1282:	dc 01       	movw	r26, r24
    1284:	aa 5a       	subi	r26, 0xAA	; 170
    1286:	be 4f       	sbci	r27, 0xFE	; 254
    1288:	2d 91       	ld	r18, X+
    128a:	3d 91       	ld	r19, X+
    128c:	4d 91       	ld	r20, X+
    128e:	5c 91       	ld	r21, X
    1290:	60 81       	ld	r22, Z
    1292:	71 81       	ldd	r23, Z+1	; 0x01
    1294:	82 81       	ldd	r24, Z+2	; 0x02
    1296:	93 81       	ldd	r25, Z+3	; 0x03
    1298:	02 d7       	rcall	.+3588   	; 0x209e <__divsf3>
    129a:	20 e0       	ldi	r18, 0x00	; 0
    129c:	30 e0       	ldi	r19, 0x00	; 0
    129e:	40 e8       	ldi	r20, 0x80	; 128
    12a0:	5f e3       	ldi	r21, 0x3F	; 63
    12a2:	0e 94 24 12 	call	0x2448	; 0x2448 <__gesf2>
    12a6:	18 16       	cp	r1, r24
    12a8:	0c f0       	brlt	.+2      	; 0x12ac <_Z54rectangular_coordinate_macroscopic_compliment_checkingP10motor_listP13function_part+0x50>
    12aa:	48 c0       	rjmp	.+144    	; 0x133c <_Z54rectangular_coordinate_macroscopic_compliment_checkingP10motor_listP13function_part+0xe0>
    12ac:	fe 01       	movw	r30, r28
    12ae:	e4 5a       	subi	r30, 0xA4	; 164
    12b0:	fe 4f       	sbci	r31, 0xFE	; 254
    12b2:	de 01       	movw	r26, r28
    12b4:	ac 58       	subi	r26, 0x8C	; 140
    12b6:	be 4f       	sbci	r27, 0xFE	; 254
    12b8:	8d 91       	ld	r24, X+
    12ba:	9d 91       	ld	r25, X+
    12bc:	0d 90       	ld	r0, X+
    12be:	bc 91       	ld	r27, X
    12c0:	a0 2d       	mov	r26, r0
    12c2:	80 83       	st	Z, r24
    12c4:	91 83       	std	Z+1, r25	; 0x01
    12c6:	a2 83       	std	Z+2, r26	; 0x02
    12c8:	b3 83       	std	Z+3, r27	; 0x03
    12ca:	34 96       	adiw	r30, 0x04	; 4
    12cc:	de 01       	movw	r26, r28
    12ce:	a8 58       	subi	r26, 0x88	; 136
    12d0:	be 4f       	sbci	r27, 0xFE	; 254
    12d2:	8d 91       	ld	r24, X+
    12d4:	9d 91       	ld	r25, X+
    12d6:	0d 90       	ld	r0, X+
    12d8:	bc 91       	ld	r27, X
    12da:	a0 2d       	mov	r26, r0
    12dc:	80 83       	st	Z, r24
    12de:	91 83       	std	Z+1, r25	; 0x01
    12e0:	a2 83       	std	Z+2, r26	; 0x02
    12e2:	b3 83       	std	Z+3, r27	; 0x03
    12e4:	34 96       	adiw	r30, 0x04	; 4
    12e6:	c4 58       	subi	r28, 0x84	; 132
    12e8:	de 4f       	sbci	r29, 0xFE	; 254
    12ea:	88 81       	ld	r24, Y
    12ec:	99 81       	ldd	r25, Y+1	; 0x01
    12ee:	aa 81       	ldd	r26, Y+2	; 0x02
    12f0:	bb 81       	ldd	r27, Y+3	; 0x03
    12f2:	80 83       	st	Z, r24
    12f4:	91 83       	std	Z+1, r25	; 0x01
    12f6:	a2 83       	std	Z+2, r26	; 0x02
    12f8:	b3 83       	std	Z+3, r27	; 0x03
    12fa:	f8 01       	movw	r30, r16
    12fc:	84 85       	ldd	r24, Z+12	; 0x0c
    12fe:	95 85       	ldd	r25, Z+13	; 0x0d
    1300:	a6 85       	ldd	r26, Z+14	; 0x0e
    1302:	b7 85       	ldd	r27, Z+15	; 0x0f
    1304:	84 83       	std	Z+4, r24	; 0x04
    1306:	95 83       	std	Z+5, r25	; 0x05
    1308:	a6 83       	std	Z+6, r26	; 0x06
    130a:	b7 83       	std	Z+7, r27	; 0x07
    130c:	84 8d       	ldd	r24, Z+28	; 0x1c
    130e:	95 8d       	ldd	r25, Z+29	; 0x1d
    1310:	a6 8d       	ldd	r26, Z+30	; 0x1e
    1312:	b7 8d       	ldd	r27, Z+31	; 0x1f
    1314:	84 8b       	std	Z+20, r24	; 0x14
    1316:	95 8b       	std	Z+21, r25	; 0x15
    1318:	a6 8b       	std	Z+22, r26	; 0x16
    131a:	b7 8b       	std	Z+23, r27	; 0x17
    131c:	89 e7       	ldi	r24, 0x79	; 121
    131e:	f7 01       	movw	r30, r14
    1320:	80 83       	st	Z, r24
    1322:	0d c0       	rjmp	.+26     	; 0x133e <_Z54rectangular_coordinate_macroscopic_compliment_checkingP10motor_listP13function_part+0xe2>
    1324:	29 37       	cpi	r18, 0x79	; 121
    1326:	49 f4       	brne	.+18     	; 0x133a <_Z54rectangular_coordinate_macroscopic_compliment_checkingP10motor_listP13function_part+0xde>
    1328:	ec 01       	movw	r28, r24
    132a:	ce 5a       	subi	r28, 0xAE	; 174
    132c:	de 4f       	sbci	r29, 0xFE	; 254
    132e:	18 82       	st	Y, r1
    1330:	19 82       	std	Y+1, r1	; 0x01
    1332:	1a 82       	std	Y+2, r1	; 0x02
    1334:	1b 82       	std	Y+3, r1	; 0x03
    1336:	89 e7       	ldi	r24, 0x79	; 121
    1338:	02 c0       	rjmp	.+4      	; 0x133e <_Z54rectangular_coordinate_macroscopic_compliment_checkingP10motor_listP13function_part+0xe2>
    133a:	02 c0       	rjmp	.+4      	; 0x1340 <_Z54rectangular_coordinate_macroscopic_compliment_checkingP10motor_listP13function_part+0xe4>
    133c:	8e e6       	ldi	r24, 0x6E	; 110
    133e:	90 e0       	ldi	r25, 0x00	; 0
    1340:	df 91       	pop	r29
    1342:	cf 91       	pop	r28
    1344:	1f 91       	pop	r17
    1346:	0f 91       	pop	r16
    1348:	ff 90       	pop	r15
    134a:	ef 90       	pop	r14
    134c:	08 95       	ret

0000134e <_Z54rectangular_coordinate_microscopic_compliment_checkingP10motor_listP13function_part>:
    134e:	cf 92       	push	r12
    1350:	df 92       	push	r13
    1352:	ef 92       	push	r14
    1354:	ff 92       	push	r15
    1356:	0f 93       	push	r16
    1358:	1f 93       	push	r17
    135a:	cf 93       	push	r28
    135c:	df 93       	push	r29
    135e:	db 01       	movw	r26, r22
    1360:	ec 01       	movw	r28, r24
    1362:	c0 5c       	subi	r28, 0xC0	; 192
    1364:	de 4f       	sbci	r29, 0xFE	; 254
    1366:	fc 01       	movw	r30, r24
    1368:	20 e0       	ldi	r18, 0x00	; 0
    136a:	30 e0       	ldi	r19, 0x00	; 0
    136c:	19 e7       	ldi	r17, 0x79	; 121
    136e:	0e e6       	ldi	r16, 0x6E	; 110
    1370:	44 ad       	ldd	r20, Z+60	; 0x3c
    1372:	55 ad       	ldd	r21, Z+61	; 0x3d
    1374:	66 ad       	ldd	r22, Z+62	; 0x3e
    1376:	77 ad       	ldd	r23, Z+63	; 0x3f
    1378:	c0 ac       	ldd	r12, Z+56	; 0x38
    137a:	d1 ac       	ldd	r13, Z+57	; 0x39
    137c:	e2 ac       	ldd	r14, Z+58	; 0x3a
    137e:	f3 ac       	ldd	r15, Z+59	; 0x3b
    1380:	4c 19       	sub	r20, r12
    1382:	5d 09       	sbc	r21, r13
    1384:	6e 09       	sbc	r22, r14
    1386:	7f 09       	sbc	r23, r15
    1388:	44 ab       	std	Z+52, r20	; 0x34
    138a:	55 ab       	std	Z+53, r21	; 0x35
    138c:	66 ab       	std	Z+54, r22	; 0x36
    138e:	77 ab       	std	Z+55, r23	; 0x37
    1390:	45 2b       	or	r20, r21
    1392:	46 2b       	or	r20, r22
    1394:	47 2b       	or	r20, r23
    1396:	21 f0       	breq	.+8      	; 0x13a0 <_Z54rectangular_coordinate_microscopic_compliment_checkingP10motor_listP13function_part+0x52>
    1398:	03 8f       	std	Z+27, r16	; 0x1b
    139a:	2f 5f       	subi	r18, 0xFF	; 255
    139c:	3f 4f       	sbci	r19, 0xFF	; 255
    139e:	09 c0       	rjmp	.+18     	; 0x13b2 <_Z54rectangular_coordinate_microscopic_compliment_checkingP10motor_listP13function_part+0x64>
    13a0:	40 a9       	ldd	r20, Z+48	; 0x30
    13a2:	51 a9       	ldd	r21, Z+49	; 0x31
    13a4:	62 a9       	ldd	r22, Z+50	; 0x32
    13a6:	73 a9       	ldd	r23, Z+51	; 0x33
    13a8:	44 a7       	std	Z+44, r20	; 0x2c
    13aa:	55 a7       	std	Z+45, r21	; 0x2d
    13ac:	66 a7       	std	Z+46, r22	; 0x2e
    13ae:	77 a7       	std	Z+47, r23	; 0x2f
    13b0:	13 8f       	std	Z+27, r17	; 0x1b
    13b2:	e0 5c       	subi	r30, 0xC0	; 192
    13b4:	ff 4f       	sbci	r31, 0xFF	; 255
    13b6:	ce 17       	cp	r28, r30
    13b8:	df 07       	cpc	r29, r31
    13ba:	d1 f6       	brne	.-76     	; 0x1370 <_Z54rectangular_coordinate_microscopic_compliment_checkingP10motor_listP13function_part+0x22>
    13bc:	23 2b       	or	r18, r19
    13be:	e9 f5       	brne	.+122    	; 0x143a <_Z54rectangular_coordinate_microscopic_compliment_checkingP10motor_listP13function_part+0xec>
    13c0:	fc 01       	movw	r30, r24
    13c2:	ec 58       	subi	r30, 0x8C	; 140
    13c4:	fe 4f       	sbci	r31, 0xFE	; 254
    13c6:	ec 01       	movw	r28, r24
    13c8:	c4 57       	subi	r28, 0x74	; 116
    13ca:	de 4f       	sbci	r29, 0xFE	; 254
    13cc:	48 81       	ld	r20, Y
    13ce:	59 81       	ldd	r21, Y+1	; 0x01
    13d0:	6a 81       	ldd	r22, Y+2	; 0x02
    13d2:	7b 81       	ldd	r23, Y+3	; 0x03
    13d4:	40 83       	st	Z, r20
    13d6:	51 83       	std	Z+1, r21	; 0x01
    13d8:	62 83       	std	Z+2, r22	; 0x02
    13da:	73 83       	std	Z+3, r23	; 0x03
    13dc:	34 96       	adiw	r30, 0x04	; 4
    13de:	24 96       	adiw	r28, 0x04	; 4
    13e0:	48 81       	ld	r20, Y
    13e2:	59 81       	ldd	r21, Y+1	; 0x01
    13e4:	6a 81       	ldd	r22, Y+2	; 0x02
    13e6:	7b 81       	ldd	r23, Y+3	; 0x03
    13e8:	40 83       	st	Z, r20
    13ea:	51 83       	std	Z+1, r21	; 0x01
    13ec:	62 83       	std	Z+2, r22	; 0x02
    13ee:	73 83       	std	Z+3, r23	; 0x03
    13f0:	34 96       	adiw	r30, 0x04	; 4
    13f2:	24 96       	adiw	r28, 0x04	; 4
    13f4:	48 81       	ld	r20, Y
    13f6:	59 81       	ldd	r21, Y+1	; 0x01
    13f8:	6a 81       	ldd	r22, Y+2	; 0x02
    13fa:	7b 81       	ldd	r23, Y+3	; 0x03
    13fc:	40 83       	st	Z, r20
    13fe:	51 83       	std	Z+1, r21	; 0x01
    1400:	62 83       	std	Z+2, r22	; 0x02
    1402:	73 83       	std	Z+3, r23	; 0x03
    1404:	50 96       	adiw	r26, 0x10	; 16
    1406:	4d 91       	ld	r20, X+
    1408:	5d 91       	ld	r21, X+
    140a:	6d 91       	ld	r22, X+
    140c:	7c 91       	ld	r23, X
    140e:	53 97       	sbiw	r26, 0x13	; 19
    1410:	1c 96       	adiw	r26, 0x0c	; 12
    1412:	4d 93       	st	X+, r20
    1414:	5d 93       	st	X+, r21
    1416:	6d 93       	st	X+, r22
    1418:	7c 93       	st	X, r23
    141a:	1f 97       	sbiw	r26, 0x0f	; 15
    141c:	90 96       	adiw	r26, 0x20	; 32
    141e:	4d 91       	ld	r20, X+
    1420:	5d 91       	ld	r21, X+
    1422:	6d 91       	ld	r22, X+
    1424:	7c 91       	ld	r23, X
    1426:	93 97       	sbiw	r26, 0x23	; 35
    1428:	5c 96       	adiw	r26, 0x1c	; 28
    142a:	4d 93       	st	X+, r20
    142c:	5d 93       	st	X+, r21
    142e:	6d 93       	st	X+, r22
    1430:	7c 93       	st	X, r23
    1432:	5f 97       	sbiw	r26, 0x1f	; 31
    1434:	89 e7       	ldi	r24, 0x79	; 121
    1436:	90 e0       	ldi	r25, 0x00	; 0
    1438:	02 c0       	rjmp	.+4      	; 0x143e <_Z54rectangular_coordinate_microscopic_compliment_checkingP10motor_listP13function_part+0xf0>
    143a:	8e e6       	ldi	r24, 0x6E	; 110
    143c:	90 e0       	ldi	r25, 0x00	; 0
    143e:	df 91       	pop	r29
    1440:	cf 91       	pop	r28
    1442:	1f 91       	pop	r17
    1444:	0f 91       	pop	r16
    1446:	ff 90       	pop	r15
    1448:	ef 90       	pop	r14
    144a:	df 90       	pop	r13
    144c:	cf 90       	pop	r12
    144e:	08 95       	ret

00001450 <_Z23motor_combo_calibrationP10motor_listP13function_partdddddi>:
    1450:	2f 92       	push	r2
    1452:	3f 92       	push	r3
    1454:	4f 92       	push	r4
    1456:	5f 92       	push	r5
    1458:	6f 92       	push	r6
    145a:	7f 92       	push	r7
    145c:	8f 92       	push	r8
    145e:	9f 92       	push	r9
    1460:	af 92       	push	r10
    1462:	bf 92       	push	r11
    1464:	cf 92       	push	r12
    1466:	df 92       	push	r13
    1468:	ef 92       	push	r14
    146a:	ff 92       	push	r15
    146c:	0f 93       	push	r16
    146e:	1f 93       	push	r17
    1470:	cf 93       	push	r28
    1472:	df 93       	push	r29
    1474:	cd b7       	in	r28, 0x3d	; 61
    1476:	de b7       	in	r29, 0x3e	; 62
    1478:	62 97       	sbiw	r28, 0x12	; 18
    147a:	0f b6       	in	r0, 0x3f	; 63
    147c:	f8 94       	cli
    147e:	de bf       	out	0x3e, r29	; 62
    1480:	0f be       	out	0x3f, r0	; 63
    1482:	cd bf       	out	0x3d, r28	; 61
    1484:	1c 01       	movw	r2, r24
    1486:	7a 87       	std	Y+10, r23	; 0x0a
    1488:	69 87       	std	Y+9, r22	; 0x09
    148a:	29 01       	movw	r4, r18
    148c:	3a 01       	movw	r6, r20
    148e:	eb 86       	std	Y+11, r14	; 0x0b
    1490:	fc 86       	std	Y+12, r15	; 0x0c
    1492:	0d 87       	std	Y+13, r16	; 0x0d
    1494:	1e 87       	std	Y+14, r17	; 0x0e
    1496:	af 86       	std	Y+15, r10	; 0x0f
    1498:	b8 8a       	std	Y+16, r11	; 0x10
    149a:	c9 8a       	std	Y+17, r12	; 0x11
    149c:	da 8a       	std	Y+18, r13	; 0x12
    149e:	2f a1       	ldd	r18, Y+39	; 0x27
    14a0:	2d 83       	std	Y+5, r18	; 0x05
    14a2:	38 a5       	ldd	r19, Y+40	; 0x28
    14a4:	3e 83       	std	Y+6, r19	; 0x06
    14a6:	89 a5       	ldd	r24, Y+41	; 0x29
    14a8:	8f 83       	std	Y+7, r24	; 0x07
    14aa:	9a a5       	ldd	r25, Y+42	; 0x2a
    14ac:	98 87       	std	Y+8, r25	; 0x08
    14ae:	db 01       	movw	r26, r22
    14b0:	2d 91       	ld	r18, X+
    14b2:	3d 91       	ld	r19, X+
    14b4:	4d 91       	ld	r20, X+
    14b6:	5c 91       	ld	r21, X
    14b8:	f1 01       	movw	r30, r2
    14ba:	e8 57       	subi	r30, 0x78	; 120
    14bc:	fe 4f       	sbci	r31, 0xFE	; 254
    14be:	fa 83       	std	Y+2, r31	; 0x02
    14c0:	e9 83       	std	Y+1, r30	; 0x01
    14c2:	ff 93       	push	r31
    14c4:	ef 93       	push	r30
    14c6:	c1 01       	movw	r24, r2
    14c8:	8c 57       	subi	r24, 0x7C	; 124
    14ca:	9e 4f       	sbci	r25, 0xFE	; 254
    14cc:	9c 83       	std	Y+4, r25	; 0x04
    14ce:	8b 83       	std	Y+3, r24	; 0x03
    14d0:	9f 93       	push	r25
    14d2:	8f 93       	push	r24
    14d4:	41 01       	movw	r8, r2
    14d6:	90 e8       	ldi	r25, 0x80	; 128
    14d8:	89 1a       	sub	r8, r25
    14da:	9e ef       	ldi	r25, 0xFE	; 254
    14dc:	99 0a       	sbc	r9, r25
    14de:	9f 92       	push	r9
    14e0:	8f 92       	push	r8
    14e2:	aa 89       	ldd	r26, Y+18	; 0x12
    14e4:	af 93       	push	r26
    14e6:	b9 89       	ldd	r27, Y+17	; 0x11
    14e8:	bf 93       	push	r27
    14ea:	e8 89       	ldd	r30, Y+16	; 0x10
    14ec:	ef 93       	push	r30
    14ee:	ff 85       	ldd	r31, Y+15	; 0x0f
    14f0:	ff 93       	push	r31
    14f2:	ab 84       	ldd	r10, Y+11	; 0x0b
    14f4:	bc 84       	ldd	r11, Y+12	; 0x0c
    14f6:	cd 84       	ldd	r12, Y+13	; 0x0d
    14f8:	de 84       	ldd	r13, Y+14	; 0x0e
    14fa:	83 01       	movw	r16, r6
    14fc:	72 01       	movw	r14, r4
    14fe:	bd 81       	ldd	r27, Y+5	; 0x05
    1500:	ae 81       	ldd	r26, Y+6	; 0x06
    1502:	ff 81       	ldd	r31, Y+7	; 0x07
    1504:	e8 85       	ldd	r30, Y+8	; 0x08
    1506:	6b 2f       	mov	r22, r27
    1508:	7a 2f       	mov	r23, r26
    150a:	8f 2f       	mov	r24, r31
    150c:	9e 2f       	mov	r25, r30
    150e:	48 d9       	rcall	.-3440   	; 0x7a0 <_Z37function_part_position_transformationdddddPdS_S_>
    1510:	d4 01       	movw	r26, r8
    1512:	8d 90       	ld	r8, X+
    1514:	9d 90       	ld	r9, X+
    1516:	ad 90       	ld	r10, X+
    1518:	bc 90       	ld	r11, X
    151a:	f1 01       	movw	r30, r2
    151c:	e6 5b       	subi	r30, 0xB6	; 182
    151e:	fe 4f       	sbci	r31, 0xFE	; 254
    1520:	c0 80       	ld	r12, Z
    1522:	d1 80       	ldd	r13, Z+1	; 0x01
    1524:	e2 80       	ldd	r14, Z+2	; 0x02
    1526:	f3 80       	ldd	r15, Z+3	; 0x03
    1528:	34 97       	sbiw	r30, 0x04	; 4
    152a:	00 81       	ld	r16, Z
    152c:	11 81       	ldd	r17, Z+1	; 0x01
    152e:	22 81       	ldd	r18, Z+2	; 0x02
    1530:	33 81       	ldd	r19, Z+3	; 0x03
    1532:	34 97       	sbiw	r30, 0x04	; 4
    1534:	40 81       	ld	r20, Z
    1536:	51 81       	ldd	r21, Z+1	; 0x01
    1538:	62 81       	ldd	r22, Z+2	; 0x02
    153a:	73 81       	ldd	r23, Z+3	; 0x03
    153c:	c1 01       	movw	r24, r2
    153e:	8c 55       	subi	r24, 0x5C	; 92
    1540:	9e 4f       	sbci	r25, 0xFE	; 254
    1542:	9f 93       	push	r25
    1544:	8f 93       	push	r24
    1546:	84 5b       	subi	r24, 0xB4	; 180
    1548:	91 09       	sbc	r25, r1
    154a:	9f 93       	push	r25
    154c:	8f 93       	push	r24
    154e:	80 54       	subi	r24, 0x40	; 64
    1550:	91 09       	sbc	r25, r1
    1552:	9f 93       	push	r25
    1554:	8f 93       	push	r24
    1556:	80 54       	subi	r24, 0x40	; 64
    1558:	91 09       	sbc	r25, r1
    155a:	9f 93       	push	r25
    155c:	8f 93       	push	r24
    155e:	80 54       	subi	r24, 0x40	; 64
    1560:	91 09       	sbc	r25, r1
    1562:	9f 93       	push	r25
    1564:	8f 93       	push	r24
    1566:	b8 85       	ldd	r27, Y+8	; 0x08
    1568:	bf 93       	push	r27
    156a:	ef 81       	ldd	r30, Y+7	; 0x07
    156c:	ef 93       	push	r30
    156e:	fe 81       	ldd	r31, Y+6	; 0x06
    1570:	ff 93       	push	r31
    1572:	8d 81       	ldd	r24, Y+5	; 0x05
    1574:	8f 93       	push	r24
    1576:	a9 81       	ldd	r26, Y+1	; 0x01
    1578:	ba 81       	ldd	r27, Y+2	; 0x02
    157a:	13 96       	adiw	r26, 0x03	; 3
    157c:	8c 91       	ld	r24, X
    157e:	13 97       	sbiw	r26, 0x03	; 3
    1580:	8f 93       	push	r24
    1582:	12 96       	adiw	r26, 0x02	; 2
    1584:	8c 91       	ld	r24, X
    1586:	12 97       	sbiw	r26, 0x02	; 2
    1588:	8f 93       	push	r24
    158a:	11 96       	adiw	r26, 0x01	; 1
    158c:	8c 91       	ld	r24, X
    158e:	11 97       	sbiw	r26, 0x01	; 1
    1590:	8f 93       	push	r24
    1592:	8c 91       	ld	r24, X
    1594:	8f 93       	push	r24
    1596:	eb 81       	ldd	r30, Y+3	; 0x03
    1598:	fc 81       	ldd	r31, Y+4	; 0x04
    159a:	83 81       	ldd	r24, Z+3	; 0x03
    159c:	8f 93       	push	r24
    159e:	82 81       	ldd	r24, Z+2	; 0x02
    15a0:	8f 93       	push	r24
    15a2:	81 81       	ldd	r24, Z+1	; 0x01
    15a4:	8f 93       	push	r24
    15a6:	80 81       	ld	r24, Z
    15a8:	8f 93       	push	r24
    15aa:	c1 01       	movw	r24, r2
    15ac:	cb d9       	rcall	.-3178   	; 0x944 <_Z26robot_4aix_arm_degree_clacP10motor_listdddddddPdS1_S1_S1_S1_>
    15ae:	0f b6       	in	r0, 0x3f	; 63
    15b0:	f8 94       	cli
    15b2:	de bf       	out	0x3e, r29	; 62
    15b4:	0f be       	out	0x3f, r0	; 63
    15b6:	cd bf       	out	0x3d, r28	; 61
    15b8:	65 e0       	ldi	r22, 0x05	; 5
    15ba:	70 e0       	ldi	r23, 0x00	; 0
    15bc:	82 e1       	ldi	r24, 0x12	; 18
    15be:	91 e0       	ldi	r25, 0x01	; 1
    15c0:	60 dc       	rcall	.-1856   	; 0xe82 <_Z14degree_to_stepP10motor_listi>
    15c2:	f1 01       	movw	r30, r2
    15c4:	80 e0       	ldi	r24, 0x00	; 0
    15c6:	90 e0       	ldi	r25, 0x00	; 0
    15c8:	af a5       	ldd	r26, Y+47	; 0x2f
    15ca:	b8 a9       	ldd	r27, Y+48	; 0x30
    15cc:	8a 17       	cp	r24, r26
    15ce:	9b 07       	cpc	r25, r27
    15d0:	64 f4       	brge	.+24     	; 0x15ea <_Z23motor_combo_calibrationP10motor_listP13function_partdddddi+0x19a>
    15d2:	44 ad       	ldd	r20, Z+60	; 0x3c
    15d4:	55 ad       	ldd	r21, Z+61	; 0x3d
    15d6:	66 ad       	ldd	r22, Z+62	; 0x3e
    15d8:	77 ad       	ldd	r23, Z+63	; 0x3f
    15da:	40 af       	std	Z+56, r20	; 0x38
    15dc:	51 af       	std	Z+57, r21	; 0x39
    15de:	62 af       	std	Z+58, r22	; 0x3a
    15e0:	73 af       	std	Z+59, r23	; 0x3b
    15e2:	e0 5c       	subi	r30, 0xC0	; 192
    15e4:	ff 4f       	sbci	r31, 0xFF	; 255
    15e6:	01 96       	adiw	r24, 0x01	; 1
    15e8:	ef cf       	rjmp	.-34     	; 0x15c8 <_Z23motor_combo_calibrationP10motor_listP13function_partdddddi+0x178>
    15ea:	f1 01       	movw	r30, r2
    15ec:	e4 5a       	subi	r30, 0xA4	; 164
    15ee:	fe 4f       	sbci	r31, 0xFE	; 254
    15f0:	40 82       	st	Z, r4
    15f2:	51 82       	std	Z+1, r5	; 0x01
    15f4:	62 82       	std	Z+2, r6	; 0x02
    15f6:	73 82       	std	Z+3, r7	; 0x03
    15f8:	34 96       	adiw	r30, 0x04	; 4
    15fa:	8b 85       	ldd	r24, Y+11	; 0x0b
    15fc:	9c 85       	ldd	r25, Y+12	; 0x0c
    15fe:	ad 85       	ldd	r26, Y+13	; 0x0d
    1600:	be 85       	ldd	r27, Y+14	; 0x0e
    1602:	80 83       	st	Z, r24
    1604:	91 83       	std	Z+1, r25	; 0x01
    1606:	a2 83       	std	Z+2, r26	; 0x02
    1608:	b3 83       	std	Z+3, r27	; 0x03
    160a:	34 96       	adiw	r30, 0x04	; 4
    160c:	5f 85       	ldd	r21, Y+15	; 0x0f
    160e:	48 89       	ldd	r20, Y+16	; 0x10
    1610:	39 89       	ldd	r19, Y+17	; 0x11
    1612:	2a 89       	ldd	r18, Y+18	; 0x12
    1614:	85 2f       	mov	r24, r21
    1616:	94 2f       	mov	r25, r20
    1618:	a3 2f       	mov	r26, r19
    161a:	b2 2f       	mov	r27, r18
    161c:	80 83       	st	Z, r24
    161e:	91 83       	std	Z+1, r25	; 0x01
    1620:	a2 83       	std	Z+2, r26	; 0x02
    1622:	b3 83       	std	Z+3, r27	; 0x03
    1624:	5d 81       	ldd	r21, Y+5	; 0x05
    1626:	4e 81       	ldd	r20, Y+6	; 0x06
    1628:	3f 81       	ldd	r19, Y+7	; 0x07
    162a:	28 85       	ldd	r18, Y+8	; 0x08
    162c:	85 2f       	mov	r24, r21
    162e:	94 2f       	mov	r25, r20
    1630:	a3 2f       	mov	r26, r19
    1632:	b2 2f       	mov	r27, r18
    1634:	e9 85       	ldd	r30, Y+9	; 0x09
    1636:	fa 85       	ldd	r31, Y+10	; 0x0a
    1638:	84 83       	std	Z+4, r24	; 0x04
    163a:	95 83       	std	Z+5, r25	; 0x05
    163c:	a6 83       	std	Z+6, r26	; 0x06
    163e:	b7 83       	std	Z+7, r27	; 0x07
    1640:	f1 01       	movw	r30, r2
    1642:	e0 5d       	subi	r30, 0xD0	; 208
    1644:	fe 4f       	sbci	r31, 0xFE	; 254
    1646:	8b a5       	ldd	r24, Y+43	; 0x2b
    1648:	9c a5       	ldd	r25, Y+44	; 0x2c
    164a:	ad a5       	ldd	r26, Y+45	; 0x2d
    164c:	be a5       	ldd	r27, Y+46	; 0x2e
    164e:	80 83       	st	Z, r24
    1650:	91 83       	std	Z+1, r25	; 0x01
    1652:	a2 83       	std	Z+2, r26	; 0x02
    1654:	b3 83       	std	Z+3, r27	; 0x03
    1656:	62 96       	adiw	r28, 0x12	; 18
    1658:	0f b6       	in	r0, 0x3f	; 63
    165a:	f8 94       	cli
    165c:	de bf       	out	0x3e, r29	; 62
    165e:	0f be       	out	0x3f, r0	; 63
    1660:	cd bf       	out	0x3d, r28	; 61
    1662:	df 91       	pop	r29
    1664:	cf 91       	pop	r28
    1666:	1f 91       	pop	r17
    1668:	0f 91       	pop	r16
    166a:	ff 90       	pop	r15
    166c:	ef 90       	pop	r14
    166e:	df 90       	pop	r13
    1670:	cf 90       	pop	r12
    1672:	bf 90       	pop	r11
    1674:	af 90       	pop	r10
    1676:	9f 90       	pop	r9
    1678:	8f 90       	pop	r8
    167a:	7f 90       	pop	r7
    167c:	6f 90       	pop	r6
    167e:	5f 90       	pop	r5
    1680:	4f 90       	pop	r4
    1682:	3f 90       	pop	r3
    1684:	2f 90       	pop	r2
    1686:	08 95       	ret

00001688 <_Z13whole_drivingv>:
    1688:	6c eb       	ldi	r22, 0xBC	; 188
    168a:	72 e0       	ldi	r23, 0x02	; 2
    168c:	82 e1       	ldi	r24, 0x12	; 18
    168e:	91 e0       	ldi	r25, 0x01	; 1
    1690:	e5 dd       	rcall	.-1078   	; 0x125c <_Z54rectangular_coordinate_macroscopic_compliment_checkingP10motor_listP13function_part>
    1692:	8e 36       	cpi	r24, 0x6E	; 110
    1694:	91 05       	cpc	r25, r1
    1696:	91 f5       	brne	.+100    	; 0x16fc <_Z13whole_drivingv+0x74>
    1698:	6c eb       	ldi	r22, 0xBC	; 188
    169a:	72 e0       	ldi	r23, 0x02	; 2
    169c:	82 e1       	ldi	r24, 0x12	; 18
    169e:	91 e0       	ldi	r25, 0x01	; 1
    16a0:	0e 94 09 03 	call	0x612	; 0x612 <_Z37combine_macroscopic_to_micro_orderingP10motor_listP13function_part>
    16a4:	6c eb       	ldi	r22, 0xBC	; 188
    16a6:	72 e0       	ldi	r23, 0x02	; 2
    16a8:	82 e1       	ldi	r24, 0x12	; 18
    16aa:	91 e0       	ldi	r25, 0x01	; 1
    16ac:	1d dc       	rcall	.-1990   	; 0xee8 <_Z19ordering_trans_formP10motor_listP13function_part>
    16ae:	6c eb       	ldi	r22, 0xBC	; 188
    16b0:	72 e0       	ldi	r23, 0x02	; 2
    16b2:	82 e1       	ldi	r24, 0x12	; 18
    16b4:	91 e0       	ldi	r25, 0x01	; 1
    16b6:	4b de       	rcall	.-874    	; 0x134e <_Z54rectangular_coordinate_microscopic_compliment_checkingP10motor_listP13function_part>
    16b8:	8e 36       	cpi	r24, 0x6E	; 110
    16ba:	91 05       	cpc	r25, r1
    16bc:	49 f4       	brne	.+18     	; 0x16d0 <_Z13whole_drivingv+0x48>
    16be:	82 e1       	ldi	r24, 0x12	; 18
    16c0:	91 e0       	ldi	r25, 0x01	; 1
    16c2:	c0 dc       	rcall	.-1664   	; 0x1044 <_Z54rectangular_coordinates_microscopic_to_driver_orderingP10motor_list>
    16c4:	65 e0       	ldi	r22, 0x05	; 5
    16c6:	70 e0       	ldi	r23, 0x00	; 0
    16c8:	82 e1       	ldi	r24, 0x12	; 18
    16ca:	91 e0       	ldi	r25, 0x01	; 1
    16cc:	8a dd       	rcall	.-1260   	; 0x11e2 <_Z25motor_combo_serise_drivigP10motor_listi>
    16ce:	ef cf       	rjmp	.-34     	; 0x16ae <_Z13whole_drivingv+0x26>
    16d0:	20 e0       	ldi	r18, 0x00	; 0
    16d2:	30 e0       	ldi	r19, 0x00	; 0
    16d4:	40 e8       	ldi	r20, 0x80	; 128
    16d6:	5f e3       	ldi	r21, 0x3F	; 63
    16d8:	60 91 64 02 	lds	r22, 0x0264	; 0x800264 <__data_end+0x152>
    16dc:	70 91 65 02 	lds	r23, 0x0265	; 0x800265 <__data_end+0x153>
    16e0:	80 91 66 02 	lds	r24, 0x0266	; 0x800266 <__data_end+0x154>
    16e4:	90 91 67 02 	lds	r25, 0x0267	; 0x800267 <__data_end+0x155>
    16e8:	f6 d3       	rcall	.+2028   	; 0x1ed6 <__addsf3>
    16ea:	60 93 64 02 	sts	0x0264, r22	; 0x800264 <__data_end+0x152>
    16ee:	70 93 65 02 	sts	0x0265, r23	; 0x800265 <__data_end+0x153>
    16f2:	80 93 66 02 	sts	0x0266, r24	; 0x800266 <__data_end+0x154>
    16f6:	90 93 67 02 	sts	0x0267, r25	; 0x800267 <__data_end+0x155>
    16fa:	c6 cf       	rjmp	.-116    	; 0x1688 <_Z13whole_drivingv>
    16fc:	08 95       	ret

000016fe <_Z18encoder_managementP12motor_mathod>:
    16fe:	cf 93       	push	r28
    1700:	df 93       	push	r29
    1702:	ec 01       	movw	r28, r24
    1704:	69 85       	ldd	r22, Y+9	; 0x09
    1706:	8e 81       	ldd	r24, Y+6	; 0x06
    1708:	0e 94 fb 00 	call	0x1f6	; 0x1f6 <_Z20port_input_assistantcc>
    170c:	2f 85       	ldd	r18, Y+15	; 0x0f
    170e:	38 89       	ldd	r19, Y+16	; 0x10
    1710:	2f 3f       	cpi	r18, 0xFF	; 255
    1712:	4f ef       	ldi	r20, 0xFF	; 255
    1714:	34 07       	cpc	r19, r20
    1716:	11 f0       	breq	.+4      	; 0x171c <_Z18encoder_managementP12motor_mathod+0x1e>
    1718:	3a 8b       	std	Y+18, r19	; 0x12
    171a:	29 8b       	std	Y+17, r18	; 0x11
    171c:	98 8b       	std	Y+16, r25	; 0x10
    171e:	8f 87       	std	Y+15, r24	; 0x0f
    1720:	bc 01       	movw	r22, r24
    1722:	89 89       	ldd	r24, Y+17	; 0x11
    1724:	9a 89       	ldd	r25, Y+18	; 0x12
    1726:	0e 94 bb 01 	call	0x376	; 0x376 <_Z12bit_analysisii>
    172a:	83 30       	cpi	r24, 0x03	; 3
    172c:	41 f0       	breq	.+16     	; 0x173e <_Z18encoder_managementP12motor_mathod+0x40>
    172e:	85 36       	cpi	r24, 0x65	; 101
    1730:	61 f0       	breq	.+24     	; 0x174a <_Z18encoder_managementP12motor_mathod+0x4c>
    1732:	82 30       	cpi	r24, 0x02	; 2
    1734:	59 f4       	brne	.+22     	; 0x174c <_Z18encoder_managementP12motor_mathod+0x4e>
    1736:	8d 85       	ldd	r24, Y+13	; 0x0d
    1738:	9e 85       	ldd	r25, Y+14	; 0x0e
    173a:	01 97       	sbiw	r24, 0x01	; 1
    173c:	03 c0       	rjmp	.+6      	; 0x1744 <_Z18encoder_managementP12motor_mathod+0x46>
    173e:	8d 85       	ldd	r24, Y+13	; 0x0d
    1740:	9e 85       	ldd	r25, Y+14	; 0x0e
    1742:	01 96       	adiw	r24, 0x01	; 1
    1744:	9e 87       	std	Y+14, r25	; 0x0e
    1746:	8d 87       	std	Y+13, r24	; 0x0d
    1748:	01 c0       	rjmp	.+2      	; 0x174c <_Z18encoder_managementP12motor_mathod+0x4e>
    174a:	8c 87       	std	Y+12, r24	; 0x0c
    174c:	df 91       	pop	r29
    174e:	cf 91       	pop	r28
    1750:	08 95       	ret

00001752 <__vector_15>:
    1752:	1f 92       	push	r1
    1754:	0f 92       	push	r0
    1756:	0f b6       	in	r0, 0x3f	; 63
    1758:	0f 92       	push	r0
    175a:	11 24       	eor	r1, r1
    175c:	0b b6       	in	r0, 0x3b	; 59
    175e:	0f 92       	push	r0
    1760:	2f 93       	push	r18
    1762:	3f 93       	push	r19
    1764:	4f 93       	push	r20
    1766:	5f 93       	push	r21
    1768:	6f 93       	push	r22
    176a:	7f 93       	push	r23
    176c:	8f 93       	push	r24
    176e:	9f 93       	push	r25
    1770:	af 93       	push	r26
    1772:	bf 93       	push	r27
    1774:	ef 93       	push	r30
    1776:	ff 93       	push	r31
    1778:	82 e5       	ldi	r24, 0x52	; 82
    177a:	91 e0       	ldi	r25, 0x01	; 1
    177c:	c0 df       	rcall	.-128    	; 0x16fe <_Z18encoder_managementP12motor_mathod>
    177e:	80 91 5f 01 	lds	r24, 0x015F	; 0x80015f <__data_end+0x4d>
    1782:	0e 94 cb 00 	call	0x196	; 0x196 <_Z14UART1_transmitc>
    1786:	ff 91       	pop	r31
    1788:	ef 91       	pop	r30
    178a:	bf 91       	pop	r27
    178c:	af 91       	pop	r26
    178e:	9f 91       	pop	r25
    1790:	8f 91       	pop	r24
    1792:	7f 91       	pop	r23
    1794:	6f 91       	pop	r22
    1796:	5f 91       	pop	r21
    1798:	4f 91       	pop	r20
    179a:	3f 91       	pop	r19
    179c:	2f 91       	pop	r18
    179e:	0f 90       	pop	r0
    17a0:	0b be       	out	0x3b, r0	; 59
    17a2:	0f 90       	pop	r0
    17a4:	0f be       	out	0x3f, r0	; 63
    17a6:	0f 90       	pop	r0
    17a8:	1f 90       	pop	r1
    17aa:	18 95       	reti

000017ac <main>:
    17ac:	af 92       	push	r10
    17ae:	bf 92       	push	r11
    17b0:	cf 92       	push	r12
    17b2:	df 92       	push	r13
    17b4:	ef 92       	push	r14
    17b6:	ff 92       	push	r15
    17b8:	0f 93       	push	r16
    17ba:	1f 93       	push	r17
    17bc:	cf 93       	push	r28
    17be:	0e 94 b6 00 	call	0x16c	; 0x16c <_Z10UART1_initv>
    17c2:	ce e6       	ldi	r28, 0x6E	; 110
    17c4:	c0 93 1d 01 	sts	0x011D, r28	; 0x80011d <__data_end+0xb>
    17c8:	e4 e6       	ldi	r30, 0x64	; 100
    17ca:	f0 e0       	ldi	r31, 0x00	; 0
    17cc:	f0 93 15 01 	sts	0x0115, r31	; 0x800115 <__data_end+0x3>
    17d0:	e0 93 14 01 	sts	0x0114, r30	; 0x800114 <__data_end+0x2>
    17d4:	71 e0       	ldi	r23, 0x01	; 1
    17d6:	70 93 16 01 	sts	0x0116, r23	; 0x800116 <__data_end+0x4>
    17da:	62 e6       	ldi	r22, 0x62	; 98
    17dc:	60 93 18 01 	sts	0x0118, r22	; 0x800118 <__data_end+0x6>
    17e0:	4f e3       	ldi	r20, 0x3F	; 63
    17e2:	50 e0       	ldi	r21, 0x00	; 0
    17e4:	50 93 1a 01 	sts	0x011A, r21	; 0x80011a <__data_end+0x8>
    17e8:	40 93 19 01 	sts	0x0119, r20	; 0x800119 <__data_end+0x7>
    17ec:	27 e0       	ldi	r18, 0x07	; 7
    17ee:	30 e0       	ldi	r19, 0x00	; 0
    17f0:	30 93 1c 01 	sts	0x011C, r19	; 0x80011c <__data_end+0xa>
    17f4:	20 93 1b 01 	sts	0x011B, r18	; 0x80011b <__data_end+0x9>
    17f8:	8f ef       	ldi	r24, 0xFF	; 255
    17fa:	9f ef       	ldi	r25, 0xFF	; 255
    17fc:	90 93 22 01 	sts	0x0122, r25	; 0x800122 <__data_end+0x10>
    1800:	80 93 21 01 	sts	0x0121, r24	; 0x800121 <__data_end+0xf>
    1804:	90 93 24 01 	sts	0x0124, r25	; 0x800124 <__data_end+0x12>
    1808:	80 93 23 01 	sts	0x0123, r24	; 0x800123 <__data_end+0x11>
    180c:	c0 93 5d 01 	sts	0x015D, r28	; 0x80015d <__data_end+0x4b>
    1810:	f0 93 55 01 	sts	0x0155, r31	; 0x800155 <__data_end+0x43>
    1814:	e0 93 54 01 	sts	0x0154, r30	; 0x800154 <__data_end+0x42>
    1818:	70 93 56 01 	sts	0x0156, r23	; 0x800156 <__data_end+0x44>
    181c:	60 93 58 01 	sts	0x0158, r22	; 0x800158 <__data_end+0x46>
    1820:	50 93 5a 01 	sts	0x015A, r21	; 0x80015a <__data_end+0x48>
    1824:	40 93 59 01 	sts	0x0159, r20	; 0x800159 <__data_end+0x47>
    1828:	30 93 5c 01 	sts	0x015C, r19	; 0x80015c <__data_end+0x4a>
    182c:	20 93 5b 01 	sts	0x015B, r18	; 0x80015b <__data_end+0x49>
    1830:	90 93 62 01 	sts	0x0162, r25	; 0x800162 <__data_end+0x50>
    1834:	80 93 61 01 	sts	0x0161, r24	; 0x800161 <__data_end+0x4f>
    1838:	90 93 64 01 	sts	0x0164, r25	; 0x800164 <__data_end+0x52>
    183c:	80 93 63 01 	sts	0x0163, r24	; 0x800163 <__data_end+0x51>
    1840:	c0 93 9d 01 	sts	0x019D, r28	; 0x80019d <__data_end+0x8b>
    1844:	f0 93 95 01 	sts	0x0195, r31	; 0x800195 <__data_end+0x83>
    1848:	e0 93 94 01 	sts	0x0194, r30	; 0x800194 <__data_end+0x82>
    184c:	70 93 96 01 	sts	0x0196, r23	; 0x800196 <__data_end+0x84>
    1850:	60 93 98 01 	sts	0x0198, r22	; 0x800198 <__data_end+0x86>
    1854:	50 93 9a 01 	sts	0x019A, r21	; 0x80019a <__data_end+0x88>
    1858:	40 93 99 01 	sts	0x0199, r20	; 0x800199 <__data_end+0x87>
    185c:	30 93 9c 01 	sts	0x019C, r19	; 0x80019c <__data_end+0x8a>
    1860:	20 93 9b 01 	sts	0x019B, r18	; 0x80019b <__data_end+0x89>
    1864:	90 93 a2 01 	sts	0x01A2, r25	; 0x8001a2 <__data_end+0x90>
    1868:	80 93 a1 01 	sts	0x01A1, r24	; 0x8001a1 <__data_end+0x8f>
    186c:	90 93 a4 01 	sts	0x01A4, r25	; 0x8001a4 <__data_end+0x92>
    1870:	80 93 a3 01 	sts	0x01A3, r24	; 0x8001a3 <__data_end+0x91>
    1874:	c0 93 dd 01 	sts	0x01DD, r28	; 0x8001dd <__data_end+0xcb>
    1878:	f0 93 d5 01 	sts	0x01D5, r31	; 0x8001d5 <__data_end+0xc3>
    187c:	e0 93 d4 01 	sts	0x01D4, r30	; 0x8001d4 <__data_end+0xc2>
    1880:	70 93 d6 01 	sts	0x01D6, r23	; 0x8001d6 <__data_end+0xc4>
    1884:	60 93 d8 01 	sts	0x01D8, r22	; 0x8001d8 <__data_end+0xc6>
    1888:	50 93 da 01 	sts	0x01DA, r21	; 0x8001da <__data_end+0xc8>
    188c:	40 93 d9 01 	sts	0x01D9, r20	; 0x8001d9 <__data_end+0xc7>
    1890:	30 93 dc 01 	sts	0x01DC, r19	; 0x8001dc <__data_end+0xca>
    1894:	20 93 db 01 	sts	0x01DB, r18	; 0x8001db <__data_end+0xc9>
    1898:	90 93 e2 01 	sts	0x01E2, r25	; 0x8001e2 <__data_end+0xd0>
    189c:	80 93 e1 01 	sts	0x01E1, r24	; 0x8001e1 <__data_end+0xcf>
    18a0:	90 93 e4 01 	sts	0x01E4, r25	; 0x8001e4 <__data_end+0xd2>
    18a4:	80 93 e3 01 	sts	0x01E3, r24	; 0x8001e3 <__data_end+0xd1>
    18a8:	c0 93 1d 02 	sts	0x021D, r28	; 0x80021d <__data_end+0x10b>
    18ac:	e1 e0       	ldi	r30, 0x01	; 1
    18ae:	f0 e0       	ldi	r31, 0x00	; 0
    18b0:	f0 93 15 02 	sts	0x0215, r31	; 0x800215 <__data_end+0x103>
    18b4:	e0 93 14 02 	sts	0x0214, r30	; 0x800214 <__data_end+0x102>
    18b8:	70 93 16 02 	sts	0x0216, r23	; 0x800216 <__data_end+0x104>
    18bc:	60 93 18 02 	sts	0x0218, r22	; 0x800218 <__data_end+0x106>
    18c0:	50 93 1a 02 	sts	0x021A, r21	; 0x80021a <__data_end+0x108>
    18c4:	40 93 19 02 	sts	0x0219, r20	; 0x800219 <__data_end+0x107>
    18c8:	30 93 1c 02 	sts	0x021C, r19	; 0x80021c <__data_end+0x10a>
    18cc:	20 93 1b 02 	sts	0x021B, r18	; 0x80021b <__data_end+0x109>
    18d0:	90 93 22 02 	sts	0x0222, r25	; 0x800222 <__data_end+0x110>
    18d4:	80 93 21 02 	sts	0x0221, r24	; 0x800221 <__data_end+0x10f>
    18d8:	90 93 24 02 	sts	0x0224, r25	; 0x800224 <__data_end+0x112>
    18dc:	80 93 23 02 	sts	0x0223, r24	; 0x800223 <__data_end+0x111>
    18e0:	89 e7       	ldi	r24, 0x79	; 121
    18e2:	80 93 6c 02 	sts	0x026C, r24	; 0x80026c <__data_end+0x15a>
    18e6:	81 e4       	ldi	r24, 0x41	; 65
    18e8:	83 bf       	out	0x33, r24	; 51
    18ea:	12 be       	out	0x32, r1	; 50
    18ec:	8a e0       	ldi	r24, 0x0A	; 10
    18ee:	81 bf       	out	0x31, r24	; 49
    18f0:	87 b7       	in	r24, 0x37	; 55
    18f2:	82 60       	ori	r24, 0x02	; 2
    18f4:	87 bf       	out	0x37, r24	; 55
    18f6:	78 94       	sei
    18f8:	1f 92       	push	r1
    18fa:	85 e0       	ldi	r24, 0x05	; 5
    18fc:	8f 93       	push	r24
    18fe:	83 e4       	ldi	r24, 0x43	; 67
    1900:	8f 93       	push	r24
    1902:	8f e7       	ldi	r24, 0x7F	; 127
    1904:	8f 93       	push	r24
    1906:	1f 92       	push	r1
    1908:	1f 92       	push	r1
    190a:	1f 92       	push	r1
    190c:	1f 92       	push	r1
    190e:	1f 92       	push	r1
    1910:	1f 92       	push	r1
    1912:	a1 2c       	mov	r10, r1
    1914:	b1 2c       	mov	r11, r1
    1916:	84 e1       	ldi	r24, 0x14	; 20
    1918:	c8 2e       	mov	r12, r24
    191a:	82 e4       	ldi	r24, 0x42	; 66
    191c:	d8 2e       	mov	r13, r24
    191e:	e1 2c       	mov	r14, r1
    1920:	f1 2c       	mov	r15, r1
    1922:	87 01       	movw	r16, r14
    1924:	20 e0       	ldi	r18, 0x00	; 0
    1926:	30 e0       	ldi	r19, 0x00	; 0
    1928:	40 ea       	ldi	r20, 0xA0	; 160
    192a:	51 e4       	ldi	r21, 0x41	; 65
    192c:	6c eb       	ldi	r22, 0xBC	; 188
    192e:	72 e0       	ldi	r23, 0x02	; 2
    1930:	82 e1       	ldi	r24, 0x12	; 18
    1932:	91 e0       	ldi	r25, 0x01	; 1
    1934:	8d dd       	rcall	.-1254   	; 0x1450 <_Z23motor_combo_calibrationP10motor_listP13function_partdddddi>
    1936:	6c eb       	ldi	r22, 0xBC	; 188
    1938:	72 e0       	ldi	r23, 0x02	; 2
    193a:	82 e1       	ldi	r24, 0x12	; 18
    193c:	91 e0       	ldi	r25, 0x01	; 1
    193e:	8e dc       	rcall	.-1764   	; 0x125c <_Z54rectangular_coordinate_macroscopic_compliment_checkingP10motor_listP13function_part>
    1940:	2d b7       	in	r18, 0x3d	; 61
    1942:	3e b7       	in	r19, 0x3e	; 62
    1944:	26 5f       	subi	r18, 0xF6	; 246
    1946:	3f 4f       	sbci	r19, 0xFF	; 255
    1948:	0f b6       	in	r0, 0x3f	; 63
    194a:	f8 94       	cli
    194c:	3e bf       	out	0x3e, r19	; 62
    194e:	0f be       	out	0x3f, r0	; 63
    1950:	2d bf       	out	0x3d, r18	; 61
    1952:	89 37       	cpi	r24, 0x79	; 121
    1954:	91 05       	cpc	r25, r1
    1956:	09 f0       	breq	.+2      	; 0x195a <main+0x1ae>
    1958:	4a c0       	rjmp	.+148    	; 0x19ee <main+0x242>
    195a:	c0 93 6c 02 	sts	0x026C, r28	; 0x80026c <__data_end+0x15a>
    195e:	e0 92 64 02 	sts	0x0264, r14	; 0x800264 <__data_end+0x152>
    1962:	f0 92 65 02 	sts	0x0265, r15	; 0x800265 <__data_end+0x153>
    1966:	00 93 66 02 	sts	0x0266, r16	; 0x800266 <__data_end+0x154>
    196a:	10 93 67 02 	sts	0x0267, r17	; 0x800267 <__data_end+0x155>
    196e:	80 e0       	ldi	r24, 0x00	; 0
    1970:	90 e0       	ldi	r25, 0x00	; 0
    1972:	a0 ea       	ldi	r26, 0xA0	; 160
    1974:	b1 e4       	ldi	r27, 0x41	; 65
    1976:	80 93 7a 02 	sts	0x027A, r24	; 0x80027a <__data_end+0x168>
    197a:	90 93 7b 02 	sts	0x027B, r25	; 0x80027b <__data_end+0x169>
    197e:	a0 93 7c 02 	sts	0x027C, r26	; 0x80027c <__data_end+0x16a>
    1982:	b0 93 7d 02 	sts	0x027D, r27	; 0x80027d <__data_end+0x16b>
    1986:	e0 92 7e 02 	sts	0x027E, r14	; 0x80027e <__data_end+0x16c>
    198a:	f0 92 7f 02 	sts	0x027F, r15	; 0x80027f <__data_end+0x16d>
    198e:	00 93 80 02 	sts	0x0280, r16	; 0x800280 <__data_end+0x16e>
    1992:	10 93 81 02 	sts	0x0281, r17	; 0x800281 <__data_end+0x16f>
    1996:	a0 92 82 02 	sts	0x0282, r10	; 0x800282 <__data_end+0x170>
    199a:	b0 92 83 02 	sts	0x0283, r11	; 0x800283 <__data_end+0x171>
    199e:	c0 92 84 02 	sts	0x0284, r12	; 0x800284 <__data_end+0x172>
    19a2:	d0 92 85 02 	sts	0x0285, r13	; 0x800285 <__data_end+0x173>
    19a6:	8b ed       	ldi	r24, 0xDB	; 219
    19a8:	9f e0       	ldi	r25, 0x0F	; 15
    19aa:	a9 ec       	ldi	r26, 0xC9	; 201
    19ac:	b0 e4       	ldi	r27, 0x40	; 64
    19ae:	80 93 c4 02 	sts	0x02C4, r24	; 0x8002c4 <func_gripper+0x8>
    19b2:	90 93 c5 02 	sts	0x02C5, r25	; 0x8002c5 <func_gripper+0x9>
    19b6:	a0 93 c6 02 	sts	0x02C6, r26	; 0x8002c6 <func_gripper+0xa>
    19ba:	b0 93 c7 02 	sts	0x02C7, r27	; 0x8002c7 <func_gripper+0xb>
    19be:	80 e0       	ldi	r24, 0x00	; 0
    19c0:	90 e0       	ldi	r25, 0x00	; 0
    19c2:	af e7       	ldi	r26, 0x7F	; 127
    19c4:	b3 e4       	ldi	r27, 0x43	; 67
    19c6:	80 93 d4 02 	sts	0x02D4, r24	; 0x8002d4 <func_gripper+0x18>
    19ca:	90 93 d5 02 	sts	0x02D5, r25	; 0x8002d5 <func_gripper+0x19>
    19ce:	a0 93 d6 02 	sts	0x02D6, r26	; 0x8002d6 <func_gripper+0x1a>
    19d2:	b0 93 d7 02 	sts	0x02D7, r27	; 0x8002d7 <func_gripper+0x1b>
    19d6:	80 e0       	ldi	r24, 0x00	; 0
    19d8:	90 e0       	ldi	r25, 0x00	; 0
    19da:	a8 ec       	ldi	r26, 0xC8	; 200
    19dc:	b2 e4       	ldi	r27, 0x42	; 66
    19de:	80 93 68 02 	sts	0x0268, r24	; 0x800268 <__data_end+0x156>
    19e2:	90 93 69 02 	sts	0x0269, r25	; 0x800269 <__data_end+0x157>
    19e6:	a0 93 6a 02 	sts	0x026A, r26	; 0x80026a <__data_end+0x158>
    19ea:	b0 93 6b 02 	sts	0x026B, r27	; 0x80026b <__data_end+0x159>
    19ee:	4c de       	rcall	.-872    	; 0x1688 <_Z13whole_drivingv>
    19f0:	6c eb       	ldi	r22, 0xBC	; 188
    19f2:	72 e0       	ldi	r23, 0x02	; 2
    19f4:	82 e1       	ldi	r24, 0x12	; 18
    19f6:	91 e0       	ldi	r25, 0x01	; 1
    19f8:	31 dc       	rcall	.-1950   	; 0x125c <_Z54rectangular_coordinate_macroscopic_compliment_checkingP10motor_listP13function_part>
    19fa:	89 37       	cpi	r24, 0x79	; 121
    19fc:	91 05       	cpc	r25, r1
    19fe:	09 f0       	breq	.+2      	; 0x1a02 <main+0x256>
    1a00:	4b c0       	rjmp	.+150    	; 0x1a98 <main+0x2ec>
    1a02:	8e e6       	ldi	r24, 0x6E	; 110
    1a04:	80 93 6c 02 	sts	0x026C, r24	; 0x80026c <__data_end+0x15a>
    1a08:	10 92 64 02 	sts	0x0264, r1	; 0x800264 <__data_end+0x152>
    1a0c:	10 92 65 02 	sts	0x0265, r1	; 0x800265 <__data_end+0x153>
    1a10:	10 92 66 02 	sts	0x0266, r1	; 0x800266 <__data_end+0x154>
    1a14:	10 92 67 02 	sts	0x0267, r1	; 0x800267 <__data_end+0x155>
    1a18:	80 e0       	ldi	r24, 0x00	; 0
    1a1a:	90 e0       	ldi	r25, 0x00	; 0
    1a1c:	a0 ef       	ldi	r26, 0xF0	; 240
    1a1e:	b1 e4       	ldi	r27, 0x41	; 65
    1a20:	80 93 7a 02 	sts	0x027A, r24	; 0x80027a <__data_end+0x168>
    1a24:	90 93 7b 02 	sts	0x027B, r25	; 0x80027b <__data_end+0x169>
    1a28:	a0 93 7c 02 	sts	0x027C, r26	; 0x80027c <__data_end+0x16a>
    1a2c:	b0 93 7d 02 	sts	0x027D, r27	; 0x80027d <__data_end+0x16b>
    1a30:	80 93 7e 02 	sts	0x027E, r24	; 0x80027e <__data_end+0x16c>
    1a34:	90 93 7f 02 	sts	0x027F, r25	; 0x80027f <__data_end+0x16d>
    1a38:	a0 93 80 02 	sts	0x0280, r26	; 0x800280 <__data_end+0x16e>
    1a3c:	b0 93 81 02 	sts	0x0281, r27	; 0x800281 <__data_end+0x16f>
    1a40:	80 e0       	ldi	r24, 0x00	; 0
    1a42:	90 e0       	ldi	r25, 0x00	; 0
    1a44:	a8 ed       	ldi	r26, 0xD8	; 216
    1a46:	b1 e4       	ldi	r27, 0x41	; 65
    1a48:	80 93 82 02 	sts	0x0282, r24	; 0x800282 <__data_end+0x170>
    1a4c:	90 93 83 02 	sts	0x0283, r25	; 0x800283 <__data_end+0x171>
    1a50:	a0 93 84 02 	sts	0x0284, r26	; 0x800284 <__data_end+0x172>
    1a54:	b0 93 85 02 	sts	0x0285, r27	; 0x800285 <__data_end+0x173>
    1a58:	10 92 c4 02 	sts	0x02C4, r1	; 0x8002c4 <func_gripper+0x8>
    1a5c:	10 92 c5 02 	sts	0x02C5, r1	; 0x8002c5 <func_gripper+0x9>
    1a60:	10 92 c6 02 	sts	0x02C6, r1	; 0x8002c6 <func_gripper+0xa>
    1a64:	10 92 c7 02 	sts	0x02C7, r1	; 0x8002c7 <func_gripper+0xb>
    1a68:	80 e0       	ldi	r24, 0x00	; 0
    1a6a:	90 e0       	ldi	r25, 0x00	; 0
    1a6c:	af e7       	ldi	r26, 0x7F	; 127
    1a6e:	b3 e4       	ldi	r27, 0x43	; 67
    1a70:	80 93 d4 02 	sts	0x02D4, r24	; 0x8002d4 <func_gripper+0x18>
    1a74:	90 93 d5 02 	sts	0x02D5, r25	; 0x8002d5 <func_gripper+0x19>
    1a78:	a0 93 d6 02 	sts	0x02D6, r26	; 0x8002d6 <func_gripper+0x1a>
    1a7c:	b0 93 d7 02 	sts	0x02D7, r27	; 0x8002d7 <func_gripper+0x1b>
    1a80:	80 e0       	ldi	r24, 0x00	; 0
    1a82:	90 e0       	ldi	r25, 0x00	; 0
    1a84:	a8 ec       	ldi	r26, 0xC8	; 200
    1a86:	b2 e4       	ldi	r27, 0x42	; 66
    1a88:	80 93 68 02 	sts	0x0268, r24	; 0x800268 <__data_end+0x156>
    1a8c:	90 93 69 02 	sts	0x0269, r25	; 0x800269 <__data_end+0x157>
    1a90:	a0 93 6a 02 	sts	0x026A, r26	; 0x80026a <__data_end+0x158>
    1a94:	b0 93 6b 02 	sts	0x026B, r27	; 0x80026b <__data_end+0x159>
    1a98:	f7 dd       	rcall	.-1042   	; 0x1688 <_Z13whole_drivingv>
    1a9a:	6c eb       	ldi	r22, 0xBC	; 188
    1a9c:	72 e0       	ldi	r23, 0x02	; 2
    1a9e:	82 e1       	ldi	r24, 0x12	; 18
    1aa0:	91 e0       	ldi	r25, 0x01	; 1
    1aa2:	dc db       	rcall	.-2120   	; 0x125c <_Z54rectangular_coordinate_macroscopic_compliment_checkingP10motor_listP13function_part>
    1aa4:	89 37       	cpi	r24, 0x79	; 121
    1aa6:	91 05       	cpc	r25, r1
    1aa8:	09 f0       	breq	.+2      	; 0x1aac <main+0x300>
    1aaa:	4f c0       	rjmp	.+158    	; 0x1b4a <main+0x39e>
    1aac:	8e e6       	ldi	r24, 0x6E	; 110
    1aae:	80 93 6c 02 	sts	0x026C, r24	; 0x80026c <__data_end+0x15a>
    1ab2:	10 92 64 02 	sts	0x0264, r1	; 0x800264 <__data_end+0x152>
    1ab6:	10 92 65 02 	sts	0x0265, r1	; 0x800265 <__data_end+0x153>
    1aba:	10 92 66 02 	sts	0x0266, r1	; 0x800266 <__data_end+0x154>
    1abe:	10 92 67 02 	sts	0x0267, r1	; 0x800267 <__data_end+0x155>
    1ac2:	80 e0       	ldi	r24, 0x00	; 0
    1ac4:	90 e0       	ldi	r25, 0x00	; 0
    1ac6:	a0 e7       	ldi	r26, 0x70	; 112
    1ac8:	b1 e4       	ldi	r27, 0x41	; 65
    1aca:	80 93 7a 02 	sts	0x027A, r24	; 0x80027a <__data_end+0x168>
    1ace:	90 93 7b 02 	sts	0x027B, r25	; 0x80027b <__data_end+0x169>
    1ad2:	a0 93 7c 02 	sts	0x027C, r26	; 0x80027c <__data_end+0x16a>
    1ad6:	b0 93 7d 02 	sts	0x027D, r27	; 0x80027d <__data_end+0x16b>
    1ada:	10 92 7e 02 	sts	0x027E, r1	; 0x80027e <__data_end+0x16c>
    1ade:	10 92 7f 02 	sts	0x027F, r1	; 0x80027f <__data_end+0x16d>
    1ae2:	10 92 80 02 	sts	0x0280, r1	; 0x800280 <__data_end+0x16e>
    1ae6:	10 92 81 02 	sts	0x0281, r1	; 0x800281 <__data_end+0x16f>
    1aea:	80 e0       	ldi	r24, 0x00	; 0
    1aec:	90 e0       	ldi	r25, 0x00	; 0
    1aee:	a8 e8       	ldi	r26, 0x88	; 136
    1af0:	b1 e4       	ldi	r27, 0x41	; 65
    1af2:	80 93 82 02 	sts	0x0282, r24	; 0x800282 <__data_end+0x170>
    1af6:	90 93 83 02 	sts	0x0283, r25	; 0x800283 <__data_end+0x171>
    1afa:	a0 93 84 02 	sts	0x0284, r26	; 0x800284 <__data_end+0x172>
    1afe:	b0 93 85 02 	sts	0x0285, r27	; 0x800285 <__data_end+0x173>
    1b02:	8b ed       	ldi	r24, 0xDB	; 219
    1b04:	9f e0       	ldi	r25, 0x0F	; 15
    1b06:	a9 ec       	ldi	r26, 0xC9	; 201
    1b08:	bf e3       	ldi	r27, 0x3F	; 63
    1b0a:	80 93 c4 02 	sts	0x02C4, r24	; 0x8002c4 <func_gripper+0x8>
    1b0e:	90 93 c5 02 	sts	0x02C5, r25	; 0x8002c5 <func_gripper+0x9>
    1b12:	a0 93 c6 02 	sts	0x02C6, r26	; 0x8002c6 <func_gripper+0xa>
    1b16:	b0 93 c7 02 	sts	0x02C7, r27	; 0x8002c7 <func_gripper+0xb>
    1b1a:	80 e0       	ldi	r24, 0x00	; 0
    1b1c:	90 e0       	ldi	r25, 0x00	; 0
    1b1e:	af e7       	ldi	r26, 0x7F	; 127
    1b20:	b3 e4       	ldi	r27, 0x43	; 67
    1b22:	80 93 d4 02 	sts	0x02D4, r24	; 0x8002d4 <func_gripper+0x18>
    1b26:	90 93 d5 02 	sts	0x02D5, r25	; 0x8002d5 <func_gripper+0x19>
    1b2a:	a0 93 d6 02 	sts	0x02D6, r26	; 0x8002d6 <func_gripper+0x1a>
    1b2e:	b0 93 d7 02 	sts	0x02D7, r27	; 0x8002d7 <func_gripper+0x1b>
    1b32:	80 e0       	ldi	r24, 0x00	; 0
    1b34:	90 e0       	ldi	r25, 0x00	; 0
    1b36:	a8 ec       	ldi	r26, 0xC8	; 200
    1b38:	b2 e4       	ldi	r27, 0x42	; 66
    1b3a:	80 93 68 02 	sts	0x0268, r24	; 0x800268 <__data_end+0x156>
    1b3e:	90 93 69 02 	sts	0x0269, r25	; 0x800269 <__data_end+0x157>
    1b42:	a0 93 6a 02 	sts	0x026A, r26	; 0x80026a <__data_end+0x158>
    1b46:	b0 93 6b 02 	sts	0x026B, r27	; 0x80026b <__data_end+0x159>
    1b4a:	9e dd       	rcall	.-1220   	; 0x1688 <_Z13whole_drivingv>
    1b4c:	6c eb       	ldi	r22, 0xBC	; 188
    1b4e:	72 e0       	ldi	r23, 0x02	; 2
    1b50:	82 e1       	ldi	r24, 0x12	; 18
    1b52:	91 e0       	ldi	r25, 0x01	; 1
    1b54:	83 db       	rcall	.-2298   	; 0x125c <_Z54rectangular_coordinate_macroscopic_compliment_checkingP10motor_listP13function_part>
    1b56:	89 37       	cpi	r24, 0x79	; 121
    1b58:	91 05       	cpc	r25, r1
    1b5a:	09 f0       	breq	.+2      	; 0x1b5e <main+0x3b2>
    1b5c:	4b c0       	rjmp	.+150    	; 0x1bf4 <main+0x448>
    1b5e:	8e e6       	ldi	r24, 0x6E	; 110
    1b60:	80 93 6c 02 	sts	0x026C, r24	; 0x80026c <__data_end+0x15a>
    1b64:	10 92 64 02 	sts	0x0264, r1	; 0x800264 <__data_end+0x152>
    1b68:	10 92 65 02 	sts	0x0265, r1	; 0x800265 <__data_end+0x153>
    1b6c:	10 92 66 02 	sts	0x0266, r1	; 0x800266 <__data_end+0x154>
    1b70:	10 92 67 02 	sts	0x0267, r1	; 0x800267 <__data_end+0x155>
    1b74:	80 e0       	ldi	r24, 0x00	; 0
    1b76:	90 e0       	ldi	r25, 0x00	; 0
    1b78:	a0 ef       	ldi	r26, 0xF0	; 240
    1b7a:	b1 e4       	ldi	r27, 0x41	; 65
    1b7c:	80 93 7a 02 	sts	0x027A, r24	; 0x80027a <__data_end+0x168>
    1b80:	90 93 7b 02 	sts	0x027B, r25	; 0x80027b <__data_end+0x169>
    1b84:	a0 93 7c 02 	sts	0x027C, r26	; 0x80027c <__data_end+0x16a>
    1b88:	b0 93 7d 02 	sts	0x027D, r27	; 0x80027d <__data_end+0x16b>
    1b8c:	80 93 7e 02 	sts	0x027E, r24	; 0x80027e <__data_end+0x16c>
    1b90:	90 93 7f 02 	sts	0x027F, r25	; 0x80027f <__data_end+0x16d>
    1b94:	a0 93 80 02 	sts	0x0280, r26	; 0x800280 <__data_end+0x16e>
    1b98:	b0 93 81 02 	sts	0x0281, r27	; 0x800281 <__data_end+0x16f>
    1b9c:	80 e0       	ldi	r24, 0x00	; 0
    1b9e:	90 e0       	ldi	r25, 0x00	; 0
    1ba0:	a8 ed       	ldi	r26, 0xD8	; 216
    1ba2:	b1 e4       	ldi	r27, 0x41	; 65
    1ba4:	80 93 82 02 	sts	0x0282, r24	; 0x800282 <__data_end+0x170>
    1ba8:	90 93 83 02 	sts	0x0283, r25	; 0x800283 <__data_end+0x171>
    1bac:	a0 93 84 02 	sts	0x0284, r26	; 0x800284 <__data_end+0x172>
    1bb0:	b0 93 85 02 	sts	0x0285, r27	; 0x800285 <__data_end+0x173>
    1bb4:	10 92 c4 02 	sts	0x02C4, r1	; 0x8002c4 <func_gripper+0x8>
    1bb8:	10 92 c5 02 	sts	0x02C5, r1	; 0x8002c5 <func_gripper+0x9>
    1bbc:	10 92 c6 02 	sts	0x02C6, r1	; 0x8002c6 <func_gripper+0xa>
    1bc0:	10 92 c7 02 	sts	0x02C7, r1	; 0x8002c7 <func_gripper+0xb>
    1bc4:	80 e0       	ldi	r24, 0x00	; 0
    1bc6:	90 e0       	ldi	r25, 0x00	; 0
    1bc8:	af e7       	ldi	r26, 0x7F	; 127
    1bca:	b3 e4       	ldi	r27, 0x43	; 67
    1bcc:	80 93 d4 02 	sts	0x02D4, r24	; 0x8002d4 <func_gripper+0x18>
    1bd0:	90 93 d5 02 	sts	0x02D5, r25	; 0x8002d5 <func_gripper+0x19>
    1bd4:	a0 93 d6 02 	sts	0x02D6, r26	; 0x8002d6 <func_gripper+0x1a>
    1bd8:	b0 93 d7 02 	sts	0x02D7, r27	; 0x8002d7 <func_gripper+0x1b>
    1bdc:	80 e0       	ldi	r24, 0x00	; 0
    1bde:	90 e0       	ldi	r25, 0x00	; 0
    1be0:	a8 ec       	ldi	r26, 0xC8	; 200
    1be2:	b2 e4       	ldi	r27, 0x42	; 66
    1be4:	80 93 68 02 	sts	0x0268, r24	; 0x800268 <__data_end+0x156>
    1be8:	90 93 69 02 	sts	0x0269, r25	; 0x800269 <__data_end+0x157>
    1bec:	a0 93 6a 02 	sts	0x026A, r26	; 0x80026a <__data_end+0x158>
    1bf0:	b0 93 6b 02 	sts	0x026B, r27	; 0x80026b <__data_end+0x159>
    1bf4:	49 dd       	rcall	.-1390   	; 0x1688 <_Z13whole_drivingv>
    1bf6:	80 e0       	ldi	r24, 0x00	; 0
    1bf8:	90 e0       	ldi	r25, 0x00	; 0
    1bfa:	cf 91       	pop	r28
    1bfc:	1f 91       	pop	r17
    1bfe:	0f 91       	pop	r16
    1c00:	ff 90       	pop	r15
    1c02:	ef 90       	pop	r14
    1c04:	df 90       	pop	r13
    1c06:	cf 90       	pop	r12
    1c08:	bf 90       	pop	r11
    1c0a:	af 90       	pop	r10
    1c0c:	08 95       	ret

00001c0e <_GLOBAL__sub_I_func_gripper>:
    1c0e:	ec eb       	ldi	r30, 0xBC	; 188
    1c10:	f2 e0       	ldi	r31, 0x02	; 2
    1c12:	40 e0       	ldi	r20, 0x00	; 0
    1c14:	50 e0       	ldi	r21, 0x00	; 0
    1c16:	60 e2       	ldi	r22, 0x20	; 32
    1c18:	71 e4       	ldi	r23, 0x41	; 65
    1c1a:	40 83       	st	Z, r20
    1c1c:	51 83       	std	Z+1, r21	; 0x01
    1c1e:	62 83       	std	Z+2, r22	; 0x02
    1c20:	73 83       	std	Z+3, r23	; 0x03
    1c22:	14 82       	std	Z+4, r1	; 0x04
    1c24:	15 82       	std	Z+5, r1	; 0x05
    1c26:	16 82       	std	Z+6, r1	; 0x06
    1c28:	17 82       	std	Z+7, r1	; 0x07
    1c2a:	10 86       	std	Z+8, r1	; 0x08
    1c2c:	11 86       	std	Z+9, r1	; 0x09
    1c2e:	12 86       	std	Z+10, r1	; 0x0a
    1c30:	13 86       	std	Z+11, r1	; 0x0b
    1c32:	14 86       	std	Z+12, r1	; 0x0c
    1c34:	15 86       	std	Z+13, r1	; 0x0d
    1c36:	16 86       	std	Z+14, r1	; 0x0e
    1c38:	17 86       	std	Z+15, r1	; 0x0f
    1c3a:	10 8a       	std	Z+16, r1	; 0x10
    1c3c:	11 8a       	std	Z+17, r1	; 0x11
    1c3e:	12 8a       	std	Z+18, r1	; 0x12
    1c40:	13 8a       	std	Z+19, r1	; 0x13
    1c42:	14 8a       	std	Z+20, r1	; 0x14
    1c44:	15 8a       	std	Z+21, r1	; 0x15
    1c46:	16 8a       	std	Z+22, r1	; 0x16
    1c48:	17 8a       	std	Z+23, r1	; 0x17
    1c4a:	10 8e       	std	Z+24, r1	; 0x18
    1c4c:	11 8e       	std	Z+25, r1	; 0x19
    1c4e:	12 8e       	std	Z+26, r1	; 0x1a
    1c50:	13 8e       	std	Z+27, r1	; 0x1b
    1c52:	14 8e       	std	Z+28, r1	; 0x1c
    1c54:	15 8e       	std	Z+29, r1	; 0x1d
    1c56:	16 8e       	std	Z+30, r1	; 0x1e
    1c58:	17 8e       	std	Z+31, r1	; 0x1f
    1c5a:	10 a2       	std	Z+32, r1	; 0x20
    1c5c:	11 a2       	std	Z+33, r1	; 0x21
    1c5e:	12 a2       	std	Z+34, r1	; 0x22
    1c60:	13 a2       	std	Z+35, r1	; 0x23
    1c62:	e2 e1       	ldi	r30, 0x12	; 18
    1c64:	f1 e0       	ldi	r31, 0x01	; 1
    1c66:	26 e7       	ldi	r18, 0x76	; 118
    1c68:	30 e0       	ldi	r19, 0x00	; 0
    1c6a:	31 83       	std	Z+1, r19	; 0x01
    1c6c:	20 83       	st	Z, r18
    1c6e:	84 e6       	ldi	r24, 0x64	; 100
    1c70:	90 e0       	ldi	r25, 0x00	; 0
    1c72:	93 83       	std	Z+3, r25	; 0x03
    1c74:	82 83       	std	Z+2, r24	; 0x02
    1c76:	14 a6       	std	Z+44, r1	; 0x2c
    1c78:	15 a6       	std	Z+45, r1	; 0x2d
    1c7a:	16 a6       	std	Z+46, r1	; 0x2e
    1c7c:	17 a6       	std	Z+47, r1	; 0x2f
    1c7e:	10 aa       	std	Z+48, r1	; 0x30
    1c80:	11 aa       	std	Z+49, r1	; 0x31
    1c82:	12 aa       	std	Z+50, r1	; 0x32
    1c84:	13 aa       	std	Z+51, r1	; 0x33
    1c86:	30 93 53 01 	sts	0x0153, r19	; 0x800153 <__data_end+0x41>
    1c8a:	20 93 52 01 	sts	0x0152, r18	; 0x800152 <__data_end+0x40>
    1c8e:	90 93 55 01 	sts	0x0155, r25	; 0x800155 <__data_end+0x43>
    1c92:	80 93 54 01 	sts	0x0154, r24	; 0x800154 <__data_end+0x42>
    1c96:	10 92 7e 01 	sts	0x017E, r1	; 0x80017e <__data_end+0x6c>
    1c9a:	10 92 7f 01 	sts	0x017F, r1	; 0x80017f <__data_end+0x6d>
    1c9e:	10 92 80 01 	sts	0x0180, r1	; 0x800180 <__data_end+0x6e>
    1ca2:	10 92 81 01 	sts	0x0181, r1	; 0x800181 <__data_end+0x6f>
    1ca6:	10 92 82 01 	sts	0x0182, r1	; 0x800182 <__data_end+0x70>
    1caa:	10 92 83 01 	sts	0x0183, r1	; 0x800183 <__data_end+0x71>
    1cae:	10 92 84 01 	sts	0x0184, r1	; 0x800184 <__data_end+0x72>
    1cb2:	10 92 85 01 	sts	0x0185, r1	; 0x800185 <__data_end+0x73>
    1cb6:	30 93 93 01 	sts	0x0193, r19	; 0x800193 <__data_end+0x81>
    1cba:	20 93 92 01 	sts	0x0192, r18	; 0x800192 <__data_end+0x80>
    1cbe:	90 93 95 01 	sts	0x0195, r25	; 0x800195 <__data_end+0x83>
    1cc2:	80 93 94 01 	sts	0x0194, r24	; 0x800194 <__data_end+0x82>
    1cc6:	10 92 be 01 	sts	0x01BE, r1	; 0x8001be <__data_end+0xac>
    1cca:	10 92 bf 01 	sts	0x01BF, r1	; 0x8001bf <__data_end+0xad>
    1cce:	10 92 c0 01 	sts	0x01C0, r1	; 0x8001c0 <__data_end+0xae>
    1cd2:	10 92 c1 01 	sts	0x01C1, r1	; 0x8001c1 <__data_end+0xaf>
    1cd6:	10 92 c2 01 	sts	0x01C2, r1	; 0x8001c2 <__data_end+0xb0>
    1cda:	10 92 c3 01 	sts	0x01C3, r1	; 0x8001c3 <__data_end+0xb1>
    1cde:	10 92 c4 01 	sts	0x01C4, r1	; 0x8001c4 <__data_end+0xb2>
    1ce2:	10 92 c5 01 	sts	0x01C5, r1	; 0x8001c5 <__data_end+0xb3>
    1ce6:	30 93 d3 01 	sts	0x01D3, r19	; 0x8001d3 <__data_end+0xc1>
    1cea:	20 93 d2 01 	sts	0x01D2, r18	; 0x8001d2 <__data_end+0xc0>
    1cee:	90 93 d5 01 	sts	0x01D5, r25	; 0x8001d5 <__data_end+0xc3>
    1cf2:	80 93 d4 01 	sts	0x01D4, r24	; 0x8001d4 <__data_end+0xc2>
    1cf6:	10 92 fe 01 	sts	0x01FE, r1	; 0x8001fe <__data_end+0xec>
    1cfa:	10 92 ff 01 	sts	0x01FF, r1	; 0x8001ff <__data_end+0xed>
    1cfe:	10 92 00 02 	sts	0x0200, r1	; 0x800200 <__data_end+0xee>
    1d02:	10 92 01 02 	sts	0x0201, r1	; 0x800201 <__data_end+0xef>
    1d06:	10 92 02 02 	sts	0x0202, r1	; 0x800202 <__data_end+0xf0>
    1d0a:	10 92 03 02 	sts	0x0203, r1	; 0x800203 <__data_end+0xf1>
    1d0e:	10 92 04 02 	sts	0x0204, r1	; 0x800204 <__data_end+0xf2>
    1d12:	10 92 05 02 	sts	0x0205, r1	; 0x800205 <__data_end+0xf3>
    1d16:	30 93 13 02 	sts	0x0213, r19	; 0x800213 <__data_end+0x101>
    1d1a:	20 93 12 02 	sts	0x0212, r18	; 0x800212 <__data_end+0x100>
    1d1e:	90 93 15 02 	sts	0x0215, r25	; 0x800215 <__data_end+0x103>
    1d22:	80 93 14 02 	sts	0x0214, r24	; 0x800214 <__data_end+0x102>
    1d26:	10 92 3e 02 	sts	0x023E, r1	; 0x80023e <__data_end+0x12c>
    1d2a:	10 92 3f 02 	sts	0x023F, r1	; 0x80023f <__data_end+0x12d>
    1d2e:	10 92 40 02 	sts	0x0240, r1	; 0x800240 <__data_end+0x12e>
    1d32:	10 92 41 02 	sts	0x0241, r1	; 0x800241 <__data_end+0x12f>
    1d36:	10 92 42 02 	sts	0x0242, r1	; 0x800242 <__data_end+0x130>
    1d3a:	10 92 43 02 	sts	0x0243, r1	; 0x800243 <__data_end+0x131>
    1d3e:	10 92 44 02 	sts	0x0244, r1	; 0x800244 <__data_end+0x132>
    1d42:	10 92 45 02 	sts	0x0245, r1	; 0x800245 <__data_end+0x133>
    1d46:	80 e0       	ldi	r24, 0x00	; 0
    1d48:	90 e0       	ldi	r25, 0x00	; 0
    1d4a:	a8 ed       	ldi	r26, 0xD8	; 216
    1d4c:	b1 e4       	ldi	r27, 0x41	; 65
    1d4e:	80 93 54 02 	sts	0x0254, r24	; 0x800254 <__data_end+0x142>
    1d52:	90 93 55 02 	sts	0x0255, r25	; 0x800255 <__data_end+0x143>
    1d56:	a0 93 56 02 	sts	0x0256, r26	; 0x800256 <__data_end+0x144>
    1d5a:	b0 93 57 02 	sts	0x0257, r27	; 0x800257 <__data_end+0x145>
    1d5e:	80 e0       	ldi	r24, 0x00	; 0
    1d60:	90 e0       	ldi	r25, 0x00	; 0
    1d62:	a0 ef       	ldi	r26, 0xF0	; 240
    1d64:	b1 e4       	ldi	r27, 0x41	; 65
    1d66:	80 93 58 02 	sts	0x0258, r24	; 0x800258 <__data_end+0x146>
    1d6a:	90 93 59 02 	sts	0x0259, r25	; 0x800259 <__data_end+0x147>
    1d6e:	a0 93 5a 02 	sts	0x025A, r26	; 0x80025a <__data_end+0x148>
    1d72:	b0 93 5b 02 	sts	0x025B, r27	; 0x80025b <__data_end+0x149>
    1d76:	80 93 5c 02 	sts	0x025C, r24	; 0x80025c <__data_end+0x14a>
    1d7a:	90 93 5d 02 	sts	0x025D, r25	; 0x80025d <__data_end+0x14b>
    1d7e:	a0 93 5e 02 	sts	0x025E, r26	; 0x80025e <__data_end+0x14c>
    1d82:	b0 93 5f 02 	sts	0x025F, r27	; 0x80025f <__data_end+0x14d>
    1d86:	40 93 60 02 	sts	0x0260, r20	; 0x800260 <__data_end+0x14e>
    1d8a:	50 93 61 02 	sts	0x0261, r21	; 0x800261 <__data_end+0x14f>
    1d8e:	60 93 62 02 	sts	0x0262, r22	; 0x800262 <__data_end+0x150>
    1d92:	70 93 63 02 	sts	0x0263, r23	; 0x800263 <__data_end+0x151>
    1d96:	10 92 6e 02 	sts	0x026E, r1	; 0x80026e <__data_end+0x15c>
    1d9a:	10 92 6f 02 	sts	0x026F, r1	; 0x80026f <__data_end+0x15d>
    1d9e:	10 92 70 02 	sts	0x0270, r1	; 0x800270 <__data_end+0x15e>
    1da2:	10 92 71 02 	sts	0x0271, r1	; 0x800271 <__data_end+0x15f>
    1da6:	10 92 72 02 	sts	0x0272, r1	; 0x800272 <__data_end+0x160>
    1daa:	10 92 73 02 	sts	0x0273, r1	; 0x800273 <__data_end+0x161>
    1dae:	10 92 74 02 	sts	0x0274, r1	; 0x800274 <__data_end+0x162>
    1db2:	10 92 75 02 	sts	0x0275, r1	; 0x800275 <__data_end+0x163>
    1db6:	10 92 76 02 	sts	0x0276, r1	; 0x800276 <__data_end+0x164>
    1dba:	10 92 77 02 	sts	0x0277, r1	; 0x800277 <__data_end+0x165>
    1dbe:	10 92 78 02 	sts	0x0278, r1	; 0x800278 <__data_end+0x166>
    1dc2:	10 92 79 02 	sts	0x0279, r1	; 0x800279 <__data_end+0x167>
    1dc6:	10 92 7a 02 	sts	0x027A, r1	; 0x80027a <__data_end+0x168>
    1dca:	10 92 7b 02 	sts	0x027B, r1	; 0x80027b <__data_end+0x169>
    1dce:	10 92 7c 02 	sts	0x027C, r1	; 0x80027c <__data_end+0x16a>
    1dd2:	10 92 7d 02 	sts	0x027D, r1	; 0x80027d <__data_end+0x16b>
    1dd6:	10 92 7e 02 	sts	0x027E, r1	; 0x80027e <__data_end+0x16c>
    1dda:	10 92 7f 02 	sts	0x027F, r1	; 0x80027f <__data_end+0x16d>
    1dde:	10 92 80 02 	sts	0x0280, r1	; 0x800280 <__data_end+0x16e>
    1de2:	10 92 81 02 	sts	0x0281, r1	; 0x800281 <__data_end+0x16f>
    1de6:	10 92 82 02 	sts	0x0282, r1	; 0x800282 <__data_end+0x170>
    1dea:	10 92 83 02 	sts	0x0283, r1	; 0x800283 <__data_end+0x171>
    1dee:	10 92 84 02 	sts	0x0284, r1	; 0x800284 <__data_end+0x172>
    1df2:	10 92 85 02 	sts	0x0285, r1	; 0x800285 <__data_end+0x173>
    1df6:	10 92 86 02 	sts	0x0286, r1	; 0x800286 <__data_end+0x174>
    1dfa:	10 92 87 02 	sts	0x0287, r1	; 0x800287 <__data_end+0x175>
    1dfe:	10 92 88 02 	sts	0x0288, r1	; 0x800288 <__data_end+0x176>
    1e02:	10 92 89 02 	sts	0x0289, r1	; 0x800289 <__data_end+0x177>
    1e06:	10 92 8a 02 	sts	0x028A, r1	; 0x80028a <__data_end+0x178>
    1e0a:	10 92 8b 02 	sts	0x028B, r1	; 0x80028b <__data_end+0x179>
    1e0e:	10 92 8c 02 	sts	0x028C, r1	; 0x80028c <__data_end+0x17a>
    1e12:	10 92 8d 02 	sts	0x028D, r1	; 0x80028d <__data_end+0x17b>
    1e16:	10 92 8e 02 	sts	0x028E, r1	; 0x80028e <__data_end+0x17c>
    1e1a:	10 92 8f 02 	sts	0x028F, r1	; 0x80028f <__data_end+0x17d>
    1e1e:	10 92 90 02 	sts	0x0290, r1	; 0x800290 <__data_end+0x17e>
    1e22:	10 92 91 02 	sts	0x0291, r1	; 0x800291 <__data_end+0x17f>
    1e26:	10 92 92 02 	sts	0x0292, r1	; 0x800292 <__data_end+0x180>
    1e2a:	10 92 93 02 	sts	0x0293, r1	; 0x800293 <__data_end+0x181>
    1e2e:	10 92 94 02 	sts	0x0294, r1	; 0x800294 <__data_end+0x182>
    1e32:	10 92 95 02 	sts	0x0295, r1	; 0x800295 <__data_end+0x183>
    1e36:	10 92 96 02 	sts	0x0296, r1	; 0x800296 <__data_end+0x184>
    1e3a:	10 92 97 02 	sts	0x0297, r1	; 0x800297 <__data_end+0x185>
    1e3e:	10 92 98 02 	sts	0x0298, r1	; 0x800298 <__data_end+0x186>
    1e42:	10 92 99 02 	sts	0x0299, r1	; 0x800299 <__data_end+0x187>
    1e46:	10 92 9a 02 	sts	0x029A, r1	; 0x80029a <__data_end+0x188>
    1e4a:	10 92 9b 02 	sts	0x029B, r1	; 0x80029b <__data_end+0x189>
    1e4e:	10 92 9c 02 	sts	0x029C, r1	; 0x80029c <__data_end+0x18a>
    1e52:	10 92 9d 02 	sts	0x029D, r1	; 0x80029d <__data_end+0x18b>
    1e56:	10 92 9e 02 	sts	0x029E, r1	; 0x80029e <__data_end+0x18c>
    1e5a:	10 92 9f 02 	sts	0x029F, r1	; 0x80029f <__data_end+0x18d>
    1e5e:	10 92 a0 02 	sts	0x02A0, r1	; 0x8002a0 <__data_end+0x18e>
    1e62:	10 92 a1 02 	sts	0x02A1, r1	; 0x8002a1 <__data_end+0x18f>
    1e66:	10 92 a2 02 	sts	0x02A2, r1	; 0x8002a2 <__data_end+0x190>
    1e6a:	10 92 a3 02 	sts	0x02A3, r1	; 0x8002a3 <__data_end+0x191>
    1e6e:	10 92 a4 02 	sts	0x02A4, r1	; 0x8002a4 <__data_end+0x192>
    1e72:	10 92 a5 02 	sts	0x02A5, r1	; 0x8002a5 <__data_end+0x193>
    1e76:	10 92 a6 02 	sts	0x02A6, r1	; 0x8002a6 <__data_end+0x194>
    1e7a:	10 92 a7 02 	sts	0x02A7, r1	; 0x8002a7 <__data_end+0x195>
    1e7e:	10 92 a8 02 	sts	0x02A8, r1	; 0x8002a8 <__data_end+0x196>
    1e82:	10 92 a9 02 	sts	0x02A9, r1	; 0x8002a9 <__data_end+0x197>
    1e86:	10 92 aa 02 	sts	0x02AA, r1	; 0x8002aa <__data_end+0x198>
    1e8a:	10 92 ab 02 	sts	0x02AB, r1	; 0x8002ab <__data_end+0x199>
    1e8e:	10 92 ac 02 	sts	0x02AC, r1	; 0x8002ac <__data_end+0x19a>
    1e92:	10 92 ad 02 	sts	0x02AD, r1	; 0x8002ad <__data_end+0x19b>
    1e96:	10 92 ae 02 	sts	0x02AE, r1	; 0x8002ae <__data_end+0x19c>
    1e9a:	10 92 af 02 	sts	0x02AF, r1	; 0x8002af <__data_end+0x19d>
    1e9e:	10 92 b0 02 	sts	0x02B0, r1	; 0x8002b0 <__data_end+0x19e>
    1ea2:	10 92 b1 02 	sts	0x02B1, r1	; 0x8002b1 <__data_end+0x19f>
    1ea6:	10 92 b2 02 	sts	0x02B2, r1	; 0x8002b2 <__data_end+0x1a0>
    1eaa:	10 92 b3 02 	sts	0x02B3, r1	; 0x8002b3 <__data_end+0x1a1>
    1eae:	10 92 b4 02 	sts	0x02B4, r1	; 0x8002b4 <__data_end+0x1a2>
    1eb2:	10 92 b5 02 	sts	0x02B5, r1	; 0x8002b5 <__data_end+0x1a3>
    1eb6:	08 95       	ret

00001eb8 <acos>:
    1eb8:	9f 93       	push	r25
    1eba:	9f 77       	andi	r25, 0x7F	; 127
    1ebc:	c6 d1       	rcall	.+908    	; 0x224a <__fp_arccos>
    1ebe:	0f 90       	pop	r0
    1ec0:	00 20       	and	r0, r0
    1ec2:	3a f4       	brpl	.+14     	; 0x1ed2 <acos+0x1a>
    1ec4:	90 58       	subi	r25, 0x80	; 128
    1ec6:	a2 ea       	ldi	r26, 0xA2	; 162
    1ec8:	2a ed       	ldi	r18, 0xDA	; 218
    1eca:	3f e0       	ldi	r19, 0x0F	; 15
    1ecc:	49 e4       	ldi	r20, 0x49	; 73
    1ece:	50 e4       	ldi	r21, 0x40	; 64
    1ed0:	13 d0       	rcall	.+38     	; 0x1ef8 <__addsf3x>
    1ed2:	6f c2       	rjmp	.+1246   	; 0x23b2 <__fp_round>

00001ed4 <__subsf3>:
    1ed4:	50 58       	subi	r21, 0x80	; 128

00001ed6 <__addsf3>:
    1ed6:	bb 27       	eor	r27, r27
    1ed8:	aa 27       	eor	r26, r26
    1eda:	0e d0       	rcall	.+28     	; 0x1ef8 <__addsf3x>
    1edc:	6a c2       	rjmp	.+1236   	; 0x23b2 <__fp_round>
    1ede:	33 d2       	rcall	.+1126   	; 0x2346 <__fp_pscA>
    1ee0:	30 f0       	brcs	.+12     	; 0x1eee <__addsf3+0x18>
    1ee2:	38 d2       	rcall	.+1136   	; 0x2354 <__fp_pscB>
    1ee4:	20 f0       	brcs	.+8      	; 0x1eee <__addsf3+0x18>
    1ee6:	31 f4       	brne	.+12     	; 0x1ef4 <__addsf3+0x1e>
    1ee8:	9f 3f       	cpi	r25, 0xFF	; 255
    1eea:	11 f4       	brne	.+4      	; 0x1ef0 <__addsf3+0x1a>
    1eec:	1e f4       	brtc	.+6      	; 0x1ef4 <__addsf3+0x1e>
    1eee:	f2 c1       	rjmp	.+996    	; 0x22d4 <__fp_nan>
    1ef0:	0e f4       	brtc	.+2      	; 0x1ef4 <__addsf3+0x1e>
    1ef2:	e0 95       	com	r30
    1ef4:	e7 fb       	bst	r30, 7
    1ef6:	e8 c1       	rjmp	.+976    	; 0x22c8 <__fp_inf>

00001ef8 <__addsf3x>:
    1ef8:	e9 2f       	mov	r30, r25
    1efa:	7d d2       	rcall	.+1274   	; 0x23f6 <__fp_split3>
    1efc:	80 f3       	brcs	.-32     	; 0x1ede <__addsf3+0x8>
    1efe:	ba 17       	cp	r27, r26
    1f00:	62 07       	cpc	r22, r18
    1f02:	73 07       	cpc	r23, r19
    1f04:	84 07       	cpc	r24, r20
    1f06:	95 07       	cpc	r25, r21
    1f08:	18 f0       	brcs	.+6      	; 0x1f10 <__addsf3x+0x18>
    1f0a:	71 f4       	brne	.+28     	; 0x1f28 <__addsf3x+0x30>
    1f0c:	9e f5       	brtc	.+102    	; 0x1f74 <__addsf3x+0x7c>
    1f0e:	95 c2       	rjmp	.+1322   	; 0x243a <__fp_zero>
    1f10:	0e f4       	brtc	.+2      	; 0x1f14 <__addsf3x+0x1c>
    1f12:	e0 95       	com	r30
    1f14:	0b 2e       	mov	r0, r27
    1f16:	ba 2f       	mov	r27, r26
    1f18:	a0 2d       	mov	r26, r0
    1f1a:	0b 01       	movw	r0, r22
    1f1c:	b9 01       	movw	r22, r18
    1f1e:	90 01       	movw	r18, r0
    1f20:	0c 01       	movw	r0, r24
    1f22:	ca 01       	movw	r24, r20
    1f24:	a0 01       	movw	r20, r0
    1f26:	11 24       	eor	r1, r1
    1f28:	ff 27       	eor	r31, r31
    1f2a:	59 1b       	sub	r21, r25
    1f2c:	99 f0       	breq	.+38     	; 0x1f54 <__addsf3x+0x5c>
    1f2e:	59 3f       	cpi	r21, 0xF9	; 249
    1f30:	50 f4       	brcc	.+20     	; 0x1f46 <__addsf3x+0x4e>
    1f32:	50 3e       	cpi	r21, 0xE0	; 224
    1f34:	68 f1       	brcs	.+90     	; 0x1f90 <__addsf3x+0x98>
    1f36:	1a 16       	cp	r1, r26
    1f38:	f0 40       	sbci	r31, 0x00	; 0
    1f3a:	a2 2f       	mov	r26, r18
    1f3c:	23 2f       	mov	r18, r19
    1f3e:	34 2f       	mov	r19, r20
    1f40:	44 27       	eor	r20, r20
    1f42:	58 5f       	subi	r21, 0xF8	; 248
    1f44:	f3 cf       	rjmp	.-26     	; 0x1f2c <__addsf3x+0x34>
    1f46:	46 95       	lsr	r20
    1f48:	37 95       	ror	r19
    1f4a:	27 95       	ror	r18
    1f4c:	a7 95       	ror	r26
    1f4e:	f0 40       	sbci	r31, 0x00	; 0
    1f50:	53 95       	inc	r21
    1f52:	c9 f7       	brne	.-14     	; 0x1f46 <__addsf3x+0x4e>
    1f54:	7e f4       	brtc	.+30     	; 0x1f74 <__addsf3x+0x7c>
    1f56:	1f 16       	cp	r1, r31
    1f58:	ba 0b       	sbc	r27, r26
    1f5a:	62 0b       	sbc	r22, r18
    1f5c:	73 0b       	sbc	r23, r19
    1f5e:	84 0b       	sbc	r24, r20
    1f60:	ba f0       	brmi	.+46     	; 0x1f90 <__addsf3x+0x98>
    1f62:	91 50       	subi	r25, 0x01	; 1
    1f64:	a1 f0       	breq	.+40     	; 0x1f8e <__addsf3x+0x96>
    1f66:	ff 0f       	add	r31, r31
    1f68:	bb 1f       	adc	r27, r27
    1f6a:	66 1f       	adc	r22, r22
    1f6c:	77 1f       	adc	r23, r23
    1f6e:	88 1f       	adc	r24, r24
    1f70:	c2 f7       	brpl	.-16     	; 0x1f62 <__addsf3x+0x6a>
    1f72:	0e c0       	rjmp	.+28     	; 0x1f90 <__addsf3x+0x98>
    1f74:	ba 0f       	add	r27, r26
    1f76:	62 1f       	adc	r22, r18
    1f78:	73 1f       	adc	r23, r19
    1f7a:	84 1f       	adc	r24, r20
    1f7c:	48 f4       	brcc	.+18     	; 0x1f90 <__addsf3x+0x98>
    1f7e:	87 95       	ror	r24
    1f80:	77 95       	ror	r23
    1f82:	67 95       	ror	r22
    1f84:	b7 95       	ror	r27
    1f86:	f7 95       	ror	r31
    1f88:	9e 3f       	cpi	r25, 0xFE	; 254
    1f8a:	08 f0       	brcs	.+2      	; 0x1f8e <__addsf3x+0x96>
    1f8c:	b3 cf       	rjmp	.-154    	; 0x1ef4 <__addsf3+0x1e>
    1f8e:	93 95       	inc	r25
    1f90:	88 0f       	add	r24, r24
    1f92:	08 f0       	brcs	.+2      	; 0x1f96 <__addsf3x+0x9e>
    1f94:	99 27       	eor	r25, r25
    1f96:	ee 0f       	add	r30, r30
    1f98:	97 95       	ror	r25
    1f9a:	87 95       	ror	r24
    1f9c:	08 95       	ret

00001f9e <asin>:
    1f9e:	9f 93       	push	r25
    1fa0:	9f 77       	andi	r25, 0x7F	; 127
    1fa2:	ee e3       	ldi	r30, 0x3E	; 62
    1fa4:	89 37       	cpi	r24, 0x79	; 121
    1fa6:	9e 07       	cpc	r25, r30
    1fa8:	20 f4       	brcc	.+8      	; 0x1fb2 <asin+0x14>
    1faa:	ec e8       	ldi	r30, 0x8C	; 140
    1fac:	f0 e0       	ldi	r31, 0x00	; 0
    1fae:	ba d1       	rcall	.+884    	; 0x2324 <__fp_powsodd>
    1fb0:	09 c0       	rjmp	.+18     	; 0x1fc4 <asin+0x26>
    1fb2:	4b d1       	rcall	.+662    	; 0x224a <__fp_arccos>
    1fb4:	90 58       	subi	r25, 0x80	; 128
    1fb6:	a2 ea       	ldi	r26, 0xA2	; 162
    1fb8:	2a ed       	ldi	r18, 0xDA	; 218
    1fba:	3f e0       	ldi	r19, 0x0F	; 15
    1fbc:	49 ec       	ldi	r20, 0xC9	; 201
    1fbe:	5f e3       	ldi	r21, 0x3F	; 63
    1fc0:	9b df       	rcall	.-202    	; 0x1ef8 <__addsf3x>
    1fc2:	f7 d1       	rcall	.+1006   	; 0x23b2 <__fp_round>
    1fc4:	0f 90       	pop	r0
    1fc6:	07 fc       	sbrc	r0, 7
    1fc8:	90 58       	subi	r25, 0x80	; 128
    1fca:	08 95       	ret
    1fcc:	bc d1       	rcall	.+888    	; 0x2346 <__fp_pscA>
    1fce:	58 f0       	brcs	.+22     	; 0x1fe6 <asin+0x48>
    1fd0:	80 e8       	ldi	r24, 0x80	; 128
    1fd2:	91 e0       	ldi	r25, 0x01	; 1
    1fd4:	09 f4       	brne	.+2      	; 0x1fd8 <asin+0x3a>
    1fd6:	9e ef       	ldi	r25, 0xFE	; 254
    1fd8:	bd d1       	rcall	.+890    	; 0x2354 <__fp_pscB>
    1fda:	28 f0       	brcs	.+10     	; 0x1fe6 <asin+0x48>
    1fdc:	40 e8       	ldi	r20, 0x80	; 128
    1fde:	51 e0       	ldi	r21, 0x01	; 1
    1fe0:	59 f4       	brne	.+22     	; 0x1ff8 <atan2+0xe>
    1fe2:	5e ef       	ldi	r21, 0xFE	; 254
    1fe4:	09 c0       	rjmp	.+18     	; 0x1ff8 <atan2+0xe>
    1fe6:	76 c1       	rjmp	.+748    	; 0x22d4 <__fp_nan>
    1fe8:	28 c2       	rjmp	.+1104   	; 0x243a <__fp_zero>

00001fea <atan2>:
    1fea:	e9 2f       	mov	r30, r25
    1fec:	e0 78       	andi	r30, 0x80	; 128
    1fee:	03 d2       	rcall	.+1030   	; 0x23f6 <__fp_split3>
    1ff0:	68 f3       	brcs	.-38     	; 0x1fcc <asin+0x2e>
    1ff2:	09 2e       	mov	r0, r25
    1ff4:	05 2a       	or	r0, r21
    1ff6:	c1 f3       	breq	.-16     	; 0x1fe8 <asin+0x4a>
    1ff8:	26 17       	cp	r18, r22
    1ffa:	37 07       	cpc	r19, r23
    1ffc:	48 07       	cpc	r20, r24
    1ffe:	59 07       	cpc	r21, r25
    2000:	38 f0       	brcs	.+14     	; 0x2010 <atan2+0x26>
    2002:	0e 2e       	mov	r0, r30
    2004:	07 f8       	bld	r0, 7
    2006:	e0 25       	eor	r30, r0
    2008:	69 f0       	breq	.+26     	; 0x2024 <atan2+0x3a>
    200a:	e0 25       	eor	r30, r0
    200c:	e0 64       	ori	r30, 0x40	; 64
    200e:	0a c0       	rjmp	.+20     	; 0x2024 <atan2+0x3a>
    2010:	ef 63       	ori	r30, 0x3F	; 63
    2012:	07 f8       	bld	r0, 7
    2014:	00 94       	com	r0
    2016:	07 fa       	bst	r0, 7
    2018:	db 01       	movw	r26, r22
    201a:	b9 01       	movw	r22, r18
    201c:	9d 01       	movw	r18, r26
    201e:	dc 01       	movw	r26, r24
    2020:	ca 01       	movw	r24, r20
    2022:	ad 01       	movw	r20, r26
    2024:	ef 93       	push	r30
    2026:	4a d0       	rcall	.+148    	; 0x20bc <__divsf3_pse>
    2028:	c4 d1       	rcall	.+904    	; 0x23b2 <__fp_round>
    202a:	0a d0       	rcall	.+20     	; 0x2040 <atan>
    202c:	5f 91       	pop	r21
    202e:	55 23       	and	r21, r21
    2030:	31 f0       	breq	.+12     	; 0x203e <atan2+0x54>
    2032:	2b ed       	ldi	r18, 0xDB	; 219
    2034:	3f e0       	ldi	r19, 0x0F	; 15
    2036:	49 e4       	ldi	r20, 0x49	; 73
    2038:	50 fd       	sbrc	r21, 0
    203a:	49 ec       	ldi	r20, 0xC9	; 201
    203c:	4c cf       	rjmp	.-360    	; 0x1ed6 <__addsf3>
    203e:	08 95       	ret

00002040 <atan>:
    2040:	df 93       	push	r29
    2042:	dd 27       	eor	r29, r29
    2044:	b9 2f       	mov	r27, r25
    2046:	bf 77       	andi	r27, 0x7F	; 127
    2048:	40 e8       	ldi	r20, 0x80	; 128
    204a:	5f e3       	ldi	r21, 0x3F	; 63
    204c:	16 16       	cp	r1, r22
    204e:	17 06       	cpc	r1, r23
    2050:	48 07       	cpc	r20, r24
    2052:	5b 07       	cpc	r21, r27
    2054:	10 f4       	brcc	.+4      	; 0x205a <atan+0x1a>
    2056:	d9 2f       	mov	r29, r25
    2058:	fb d1       	rcall	.+1014   	; 0x2450 <inverse>
    205a:	9f 93       	push	r25
    205c:	8f 93       	push	r24
    205e:	7f 93       	push	r23
    2060:	6f 93       	push	r22
    2062:	a8 d2       	rcall	.+1360   	; 0x25b4 <square>
    2064:	e0 ea       	ldi	r30, 0xA0	; 160
    2066:	f0 e0       	ldi	r31, 0x00	; 0
    2068:	38 d1       	rcall	.+624    	; 0x22da <__fp_powser>
    206a:	a3 d1       	rcall	.+838    	; 0x23b2 <__fp_round>
    206c:	2f 91       	pop	r18
    206e:	3f 91       	pop	r19
    2070:	4f 91       	pop	r20
    2072:	5f 91       	pop	r21
    2074:	00 d2       	rcall	.+1024   	; 0x2476 <__mulsf3x>
    2076:	dd 23       	and	r29, r29
    2078:	49 f0       	breq	.+18     	; 0x208c <atan+0x4c>
    207a:	90 58       	subi	r25, 0x80	; 128
    207c:	a2 ea       	ldi	r26, 0xA2	; 162
    207e:	2a ed       	ldi	r18, 0xDA	; 218
    2080:	3f e0       	ldi	r19, 0x0F	; 15
    2082:	49 ec       	ldi	r20, 0xC9	; 201
    2084:	5f e3       	ldi	r21, 0x3F	; 63
    2086:	d0 78       	andi	r29, 0x80	; 128
    2088:	5d 27       	eor	r21, r29
    208a:	36 df       	rcall	.-404    	; 0x1ef8 <__addsf3x>
    208c:	df 91       	pop	r29
    208e:	91 c1       	rjmp	.+802    	; 0x23b2 <__fp_round>

00002090 <__cmpsf2>:
    2090:	f7 d0       	rcall	.+494    	; 0x2280 <__fp_cmp>
    2092:	08 f4       	brcc	.+2      	; 0x2096 <__cmpsf2+0x6>
    2094:	81 e0       	ldi	r24, 0x01	; 1
    2096:	08 95       	ret

00002098 <cos>:
    2098:	65 d1       	rcall	.+714    	; 0x2364 <__fp_rempio2>
    209a:	e3 95       	inc	r30
    209c:	9b c1       	rjmp	.+822    	; 0x23d4 <__fp_sinus>

0000209e <__divsf3>:
    209e:	0c d0       	rcall	.+24     	; 0x20b8 <__divsf3x>
    20a0:	88 c1       	rjmp	.+784    	; 0x23b2 <__fp_round>
    20a2:	58 d1       	rcall	.+688    	; 0x2354 <__fp_pscB>
    20a4:	40 f0       	brcs	.+16     	; 0x20b6 <__divsf3+0x18>
    20a6:	4f d1       	rcall	.+670    	; 0x2346 <__fp_pscA>
    20a8:	30 f0       	brcs	.+12     	; 0x20b6 <__divsf3+0x18>
    20aa:	21 f4       	brne	.+8      	; 0x20b4 <__divsf3+0x16>
    20ac:	5f 3f       	cpi	r21, 0xFF	; 255
    20ae:	19 f0       	breq	.+6      	; 0x20b6 <__divsf3+0x18>
    20b0:	0b c1       	rjmp	.+534    	; 0x22c8 <__fp_inf>
    20b2:	51 11       	cpse	r21, r1
    20b4:	c3 c1       	rjmp	.+902    	; 0x243c <__fp_szero>
    20b6:	0e c1       	rjmp	.+540    	; 0x22d4 <__fp_nan>

000020b8 <__divsf3x>:
    20b8:	9e d1       	rcall	.+828    	; 0x23f6 <__fp_split3>
    20ba:	98 f3       	brcs	.-26     	; 0x20a2 <__divsf3+0x4>

000020bc <__divsf3_pse>:
    20bc:	99 23       	and	r25, r25
    20be:	c9 f3       	breq	.-14     	; 0x20b2 <__divsf3+0x14>
    20c0:	55 23       	and	r21, r21
    20c2:	b1 f3       	breq	.-20     	; 0x20b0 <__divsf3+0x12>
    20c4:	95 1b       	sub	r25, r21
    20c6:	55 0b       	sbc	r21, r21
    20c8:	bb 27       	eor	r27, r27
    20ca:	aa 27       	eor	r26, r26
    20cc:	62 17       	cp	r22, r18
    20ce:	73 07       	cpc	r23, r19
    20d0:	84 07       	cpc	r24, r20
    20d2:	38 f0       	brcs	.+14     	; 0x20e2 <__divsf3_pse+0x26>
    20d4:	9f 5f       	subi	r25, 0xFF	; 255
    20d6:	5f 4f       	sbci	r21, 0xFF	; 255
    20d8:	22 0f       	add	r18, r18
    20da:	33 1f       	adc	r19, r19
    20dc:	44 1f       	adc	r20, r20
    20de:	aa 1f       	adc	r26, r26
    20e0:	a9 f3       	breq	.-22     	; 0x20cc <__divsf3_pse+0x10>
    20e2:	33 d0       	rcall	.+102    	; 0x214a <__divsf3_pse+0x8e>
    20e4:	0e 2e       	mov	r0, r30
    20e6:	3a f0       	brmi	.+14     	; 0x20f6 <__divsf3_pse+0x3a>
    20e8:	e0 e8       	ldi	r30, 0x80	; 128
    20ea:	30 d0       	rcall	.+96     	; 0x214c <__divsf3_pse+0x90>
    20ec:	91 50       	subi	r25, 0x01	; 1
    20ee:	50 40       	sbci	r21, 0x00	; 0
    20f0:	e6 95       	lsr	r30
    20f2:	00 1c       	adc	r0, r0
    20f4:	ca f7       	brpl	.-14     	; 0x20e8 <__divsf3_pse+0x2c>
    20f6:	29 d0       	rcall	.+82     	; 0x214a <__divsf3_pse+0x8e>
    20f8:	fe 2f       	mov	r31, r30
    20fa:	27 d0       	rcall	.+78     	; 0x214a <__divsf3_pse+0x8e>
    20fc:	66 0f       	add	r22, r22
    20fe:	77 1f       	adc	r23, r23
    2100:	88 1f       	adc	r24, r24
    2102:	bb 1f       	adc	r27, r27
    2104:	26 17       	cp	r18, r22
    2106:	37 07       	cpc	r19, r23
    2108:	48 07       	cpc	r20, r24
    210a:	ab 07       	cpc	r26, r27
    210c:	b0 e8       	ldi	r27, 0x80	; 128
    210e:	09 f0       	breq	.+2      	; 0x2112 <__divsf3_pse+0x56>
    2110:	bb 0b       	sbc	r27, r27
    2112:	80 2d       	mov	r24, r0
    2114:	bf 01       	movw	r22, r30
    2116:	ff 27       	eor	r31, r31
    2118:	93 58       	subi	r25, 0x83	; 131
    211a:	5f 4f       	sbci	r21, 0xFF	; 255
    211c:	2a f0       	brmi	.+10     	; 0x2128 <__divsf3_pse+0x6c>
    211e:	9e 3f       	cpi	r25, 0xFE	; 254
    2120:	51 05       	cpc	r21, r1
    2122:	68 f0       	brcs	.+26     	; 0x213e <__divsf3_pse+0x82>
    2124:	d1 c0       	rjmp	.+418    	; 0x22c8 <__fp_inf>
    2126:	8a c1       	rjmp	.+788    	; 0x243c <__fp_szero>
    2128:	5f 3f       	cpi	r21, 0xFF	; 255
    212a:	ec f3       	brlt	.-6      	; 0x2126 <__divsf3_pse+0x6a>
    212c:	98 3e       	cpi	r25, 0xE8	; 232
    212e:	dc f3       	brlt	.-10     	; 0x2126 <__divsf3_pse+0x6a>
    2130:	86 95       	lsr	r24
    2132:	77 95       	ror	r23
    2134:	67 95       	ror	r22
    2136:	b7 95       	ror	r27
    2138:	f7 95       	ror	r31
    213a:	9f 5f       	subi	r25, 0xFF	; 255
    213c:	c9 f7       	brne	.-14     	; 0x2130 <__divsf3_pse+0x74>
    213e:	88 0f       	add	r24, r24
    2140:	91 1d       	adc	r25, r1
    2142:	96 95       	lsr	r25
    2144:	87 95       	ror	r24
    2146:	97 f9       	bld	r25, 7
    2148:	08 95       	ret
    214a:	e1 e0       	ldi	r30, 0x01	; 1
    214c:	66 0f       	add	r22, r22
    214e:	77 1f       	adc	r23, r23
    2150:	88 1f       	adc	r24, r24
    2152:	bb 1f       	adc	r27, r27
    2154:	62 17       	cp	r22, r18
    2156:	73 07       	cpc	r23, r19
    2158:	84 07       	cpc	r24, r20
    215a:	ba 07       	cpc	r27, r26
    215c:	20 f0       	brcs	.+8      	; 0x2166 <__divsf3_pse+0xaa>
    215e:	62 1b       	sub	r22, r18
    2160:	73 0b       	sbc	r23, r19
    2162:	84 0b       	sbc	r24, r20
    2164:	ba 0b       	sbc	r27, r26
    2166:	ee 1f       	adc	r30, r30
    2168:	88 f7       	brcc	.-30     	; 0x214c <__divsf3_pse+0x90>
    216a:	e0 95       	com	r30
    216c:	08 95       	ret

0000216e <__fixsfsi>:
    216e:	04 d0       	rcall	.+8      	; 0x2178 <__fixunssfsi>
    2170:	68 94       	set
    2172:	b1 11       	cpse	r27, r1
    2174:	63 c1       	rjmp	.+710    	; 0x243c <__fp_szero>
    2176:	08 95       	ret

00002178 <__fixunssfsi>:
    2178:	46 d1       	rcall	.+652    	; 0x2406 <__fp_splitA>
    217a:	88 f0       	brcs	.+34     	; 0x219e <__fixunssfsi+0x26>
    217c:	9f 57       	subi	r25, 0x7F	; 127
    217e:	90 f0       	brcs	.+36     	; 0x21a4 <__fixunssfsi+0x2c>
    2180:	b9 2f       	mov	r27, r25
    2182:	99 27       	eor	r25, r25
    2184:	b7 51       	subi	r27, 0x17	; 23
    2186:	a0 f0       	brcs	.+40     	; 0x21b0 <__fixunssfsi+0x38>
    2188:	d1 f0       	breq	.+52     	; 0x21be <__fixunssfsi+0x46>
    218a:	66 0f       	add	r22, r22
    218c:	77 1f       	adc	r23, r23
    218e:	88 1f       	adc	r24, r24
    2190:	99 1f       	adc	r25, r25
    2192:	1a f0       	brmi	.+6      	; 0x219a <__fixunssfsi+0x22>
    2194:	ba 95       	dec	r27
    2196:	c9 f7       	brne	.-14     	; 0x218a <__fixunssfsi+0x12>
    2198:	12 c0       	rjmp	.+36     	; 0x21be <__fixunssfsi+0x46>
    219a:	b1 30       	cpi	r27, 0x01	; 1
    219c:	81 f0       	breq	.+32     	; 0x21be <__fixunssfsi+0x46>
    219e:	4d d1       	rcall	.+666    	; 0x243a <__fp_zero>
    21a0:	b1 e0       	ldi	r27, 0x01	; 1
    21a2:	08 95       	ret
    21a4:	4a c1       	rjmp	.+660    	; 0x243a <__fp_zero>
    21a6:	67 2f       	mov	r22, r23
    21a8:	78 2f       	mov	r23, r24
    21aa:	88 27       	eor	r24, r24
    21ac:	b8 5f       	subi	r27, 0xF8	; 248
    21ae:	39 f0       	breq	.+14     	; 0x21be <__fixunssfsi+0x46>
    21b0:	b9 3f       	cpi	r27, 0xF9	; 249
    21b2:	cc f3       	brlt	.-14     	; 0x21a6 <__fixunssfsi+0x2e>
    21b4:	86 95       	lsr	r24
    21b6:	77 95       	ror	r23
    21b8:	67 95       	ror	r22
    21ba:	b3 95       	inc	r27
    21bc:	d9 f7       	brne	.-10     	; 0x21b4 <__fixunssfsi+0x3c>
    21be:	3e f4       	brtc	.+14     	; 0x21ce <__fixunssfsi+0x56>
    21c0:	90 95       	com	r25
    21c2:	80 95       	com	r24
    21c4:	70 95       	com	r23
    21c6:	61 95       	neg	r22
    21c8:	7f 4f       	sbci	r23, 0xFF	; 255
    21ca:	8f 4f       	sbci	r24, 0xFF	; 255
    21cc:	9f 4f       	sbci	r25, 0xFF	; 255
    21ce:	08 95       	ret

000021d0 <__floatunsisf>:
    21d0:	e8 94       	clt
    21d2:	09 c0       	rjmp	.+18     	; 0x21e6 <__floatsisf+0x12>

000021d4 <__floatsisf>:
    21d4:	97 fb       	bst	r25, 7
    21d6:	3e f4       	brtc	.+14     	; 0x21e6 <__floatsisf+0x12>
    21d8:	90 95       	com	r25
    21da:	80 95       	com	r24
    21dc:	70 95       	com	r23
    21de:	61 95       	neg	r22
    21e0:	7f 4f       	sbci	r23, 0xFF	; 255
    21e2:	8f 4f       	sbci	r24, 0xFF	; 255
    21e4:	9f 4f       	sbci	r25, 0xFF	; 255
    21e6:	99 23       	and	r25, r25
    21e8:	a9 f0       	breq	.+42     	; 0x2214 <__floatsisf+0x40>
    21ea:	f9 2f       	mov	r31, r25
    21ec:	96 e9       	ldi	r25, 0x96	; 150
    21ee:	bb 27       	eor	r27, r27
    21f0:	93 95       	inc	r25
    21f2:	f6 95       	lsr	r31
    21f4:	87 95       	ror	r24
    21f6:	77 95       	ror	r23
    21f8:	67 95       	ror	r22
    21fa:	b7 95       	ror	r27
    21fc:	f1 11       	cpse	r31, r1
    21fe:	f8 cf       	rjmp	.-16     	; 0x21f0 <__floatsisf+0x1c>
    2200:	fa f4       	brpl	.+62     	; 0x2240 <__floatsisf+0x6c>
    2202:	bb 0f       	add	r27, r27
    2204:	11 f4       	brne	.+4      	; 0x220a <__floatsisf+0x36>
    2206:	60 ff       	sbrs	r22, 0
    2208:	1b c0       	rjmp	.+54     	; 0x2240 <__floatsisf+0x6c>
    220a:	6f 5f       	subi	r22, 0xFF	; 255
    220c:	7f 4f       	sbci	r23, 0xFF	; 255
    220e:	8f 4f       	sbci	r24, 0xFF	; 255
    2210:	9f 4f       	sbci	r25, 0xFF	; 255
    2212:	16 c0       	rjmp	.+44     	; 0x2240 <__floatsisf+0x6c>
    2214:	88 23       	and	r24, r24
    2216:	11 f0       	breq	.+4      	; 0x221c <__floatsisf+0x48>
    2218:	96 e9       	ldi	r25, 0x96	; 150
    221a:	11 c0       	rjmp	.+34     	; 0x223e <__floatsisf+0x6a>
    221c:	77 23       	and	r23, r23
    221e:	21 f0       	breq	.+8      	; 0x2228 <__floatsisf+0x54>
    2220:	9e e8       	ldi	r25, 0x8E	; 142
    2222:	87 2f       	mov	r24, r23
    2224:	76 2f       	mov	r23, r22
    2226:	05 c0       	rjmp	.+10     	; 0x2232 <__floatsisf+0x5e>
    2228:	66 23       	and	r22, r22
    222a:	71 f0       	breq	.+28     	; 0x2248 <__floatsisf+0x74>
    222c:	96 e8       	ldi	r25, 0x86	; 134
    222e:	86 2f       	mov	r24, r22
    2230:	70 e0       	ldi	r23, 0x00	; 0
    2232:	60 e0       	ldi	r22, 0x00	; 0
    2234:	2a f0       	brmi	.+10     	; 0x2240 <__floatsisf+0x6c>
    2236:	9a 95       	dec	r25
    2238:	66 0f       	add	r22, r22
    223a:	77 1f       	adc	r23, r23
    223c:	88 1f       	adc	r24, r24
    223e:	da f7       	brpl	.-10     	; 0x2236 <__floatsisf+0x62>
    2240:	88 0f       	add	r24, r24
    2242:	96 95       	lsr	r25
    2244:	87 95       	ror	r24
    2246:	97 f9       	bld	r25, 7
    2248:	08 95       	ret

0000224a <__fp_arccos>:
    224a:	df 93       	push	r29
    224c:	cf 93       	push	r28
    224e:	1f 93       	push	r17
    2250:	0f 93       	push	r16
    2252:	8b 01       	movw	r16, r22
    2254:	ec 01       	movw	r28, r24
    2256:	ed ec       	ldi	r30, 0xCD	; 205
    2258:	f0 e0       	ldi	r31, 0x00	; 0
    225a:	3f d0       	rcall	.+126    	; 0x22da <__fp_powser>
    225c:	aa d0       	rcall	.+340    	; 0x23b2 <__fp_round>
    225e:	98 01       	movw	r18, r16
    2260:	ae 01       	movw	r20, r28
    2262:	8b 01       	movw	r16, r22
    2264:	ec 01       	movw	r28, r24
    2266:	60 e0       	ldi	r22, 0x00	; 0
    2268:	70 e0       	ldi	r23, 0x00	; 0
    226a:	80 e8       	ldi	r24, 0x80	; 128
    226c:	9f e3       	ldi	r25, 0x3F	; 63
    226e:	32 de       	rcall	.-924    	; 0x1ed4 <__subsf3>
    2270:	63 d1       	rcall	.+710    	; 0x2538 <sqrt>
    2272:	98 01       	movw	r18, r16
    2274:	ae 01       	movw	r20, r28
    2276:	0f 91       	pop	r16
    2278:	1f 91       	pop	r17
    227a:	cf 91       	pop	r28
    227c:	df 91       	pop	r29
    227e:	fb c0       	rjmp	.+502    	; 0x2476 <__mulsf3x>

00002280 <__fp_cmp>:
    2280:	99 0f       	add	r25, r25
    2282:	00 08       	sbc	r0, r0
    2284:	55 0f       	add	r21, r21
    2286:	aa 0b       	sbc	r26, r26
    2288:	e0 e8       	ldi	r30, 0x80	; 128
    228a:	fe ef       	ldi	r31, 0xFE	; 254
    228c:	16 16       	cp	r1, r22
    228e:	17 06       	cpc	r1, r23
    2290:	e8 07       	cpc	r30, r24
    2292:	f9 07       	cpc	r31, r25
    2294:	c0 f0       	brcs	.+48     	; 0x22c6 <__fp_cmp+0x46>
    2296:	12 16       	cp	r1, r18
    2298:	13 06       	cpc	r1, r19
    229a:	e4 07       	cpc	r30, r20
    229c:	f5 07       	cpc	r31, r21
    229e:	98 f0       	brcs	.+38     	; 0x22c6 <__fp_cmp+0x46>
    22a0:	62 1b       	sub	r22, r18
    22a2:	73 0b       	sbc	r23, r19
    22a4:	84 0b       	sbc	r24, r20
    22a6:	95 0b       	sbc	r25, r21
    22a8:	39 f4       	brne	.+14     	; 0x22b8 <__fp_cmp+0x38>
    22aa:	0a 26       	eor	r0, r26
    22ac:	61 f0       	breq	.+24     	; 0x22c6 <__fp_cmp+0x46>
    22ae:	23 2b       	or	r18, r19
    22b0:	24 2b       	or	r18, r20
    22b2:	25 2b       	or	r18, r21
    22b4:	21 f4       	brne	.+8      	; 0x22be <__fp_cmp+0x3e>
    22b6:	08 95       	ret
    22b8:	0a 26       	eor	r0, r26
    22ba:	09 f4       	brne	.+2      	; 0x22be <__fp_cmp+0x3e>
    22bc:	a1 40       	sbci	r26, 0x01	; 1
    22be:	a6 95       	lsr	r26
    22c0:	8f ef       	ldi	r24, 0xFF	; 255
    22c2:	81 1d       	adc	r24, r1
    22c4:	81 1d       	adc	r24, r1
    22c6:	08 95       	ret

000022c8 <__fp_inf>:
    22c8:	97 f9       	bld	r25, 7
    22ca:	9f 67       	ori	r25, 0x7F	; 127
    22cc:	80 e8       	ldi	r24, 0x80	; 128
    22ce:	70 e0       	ldi	r23, 0x00	; 0
    22d0:	60 e0       	ldi	r22, 0x00	; 0
    22d2:	08 95       	ret

000022d4 <__fp_nan>:
    22d4:	9f ef       	ldi	r25, 0xFF	; 255
    22d6:	80 ec       	ldi	r24, 0xC0	; 192
    22d8:	08 95       	ret

000022da <__fp_powser>:
    22da:	df 93       	push	r29
    22dc:	cf 93       	push	r28
    22de:	1f 93       	push	r17
    22e0:	0f 93       	push	r16
    22e2:	ff 92       	push	r15
    22e4:	ef 92       	push	r14
    22e6:	df 92       	push	r13
    22e8:	7b 01       	movw	r14, r22
    22ea:	8c 01       	movw	r16, r24
    22ec:	68 94       	set
    22ee:	05 c0       	rjmp	.+10     	; 0x22fa <__fp_powser+0x20>
    22f0:	da 2e       	mov	r13, r26
    22f2:	ef 01       	movw	r28, r30
    22f4:	c0 d0       	rcall	.+384    	; 0x2476 <__mulsf3x>
    22f6:	fe 01       	movw	r30, r28
    22f8:	e8 94       	clt
    22fa:	a5 91       	lpm	r26, Z+
    22fc:	25 91       	lpm	r18, Z+
    22fe:	35 91       	lpm	r19, Z+
    2300:	45 91       	lpm	r20, Z+
    2302:	55 91       	lpm	r21, Z+
    2304:	ae f3       	brts	.-22     	; 0x22f0 <__fp_powser+0x16>
    2306:	ef 01       	movw	r28, r30
    2308:	f7 dd       	rcall	.-1042   	; 0x1ef8 <__addsf3x>
    230a:	fe 01       	movw	r30, r28
    230c:	97 01       	movw	r18, r14
    230e:	a8 01       	movw	r20, r16
    2310:	da 94       	dec	r13
    2312:	79 f7       	brne	.-34     	; 0x22f2 <__fp_powser+0x18>
    2314:	df 90       	pop	r13
    2316:	ef 90       	pop	r14
    2318:	ff 90       	pop	r15
    231a:	0f 91       	pop	r16
    231c:	1f 91       	pop	r17
    231e:	cf 91       	pop	r28
    2320:	df 91       	pop	r29
    2322:	08 95       	ret

00002324 <__fp_powsodd>:
    2324:	9f 93       	push	r25
    2326:	8f 93       	push	r24
    2328:	7f 93       	push	r23
    232a:	6f 93       	push	r22
    232c:	ff 93       	push	r31
    232e:	ef 93       	push	r30
    2330:	9b 01       	movw	r18, r22
    2332:	ac 01       	movw	r20, r24
    2334:	94 d0       	rcall	.+296    	; 0x245e <__mulsf3>
    2336:	ef 91       	pop	r30
    2338:	ff 91       	pop	r31
    233a:	cf df       	rcall	.-98     	; 0x22da <__fp_powser>
    233c:	2f 91       	pop	r18
    233e:	3f 91       	pop	r19
    2340:	4f 91       	pop	r20
    2342:	5f 91       	pop	r21
    2344:	8c c0       	rjmp	.+280    	; 0x245e <__mulsf3>

00002346 <__fp_pscA>:
    2346:	00 24       	eor	r0, r0
    2348:	0a 94       	dec	r0
    234a:	16 16       	cp	r1, r22
    234c:	17 06       	cpc	r1, r23
    234e:	18 06       	cpc	r1, r24
    2350:	09 06       	cpc	r0, r25
    2352:	08 95       	ret

00002354 <__fp_pscB>:
    2354:	00 24       	eor	r0, r0
    2356:	0a 94       	dec	r0
    2358:	12 16       	cp	r1, r18
    235a:	13 06       	cpc	r1, r19
    235c:	14 06       	cpc	r1, r20
    235e:	05 06       	cpc	r0, r21
    2360:	08 95       	ret
    2362:	b8 cf       	rjmp	.-144    	; 0x22d4 <__fp_nan>

00002364 <__fp_rempio2>:
    2364:	50 d0       	rcall	.+160    	; 0x2406 <__fp_splitA>
    2366:	e8 f3       	brcs	.-6      	; 0x2362 <__fp_pscB+0xe>
    2368:	e8 94       	clt
    236a:	e0 e0       	ldi	r30, 0x00	; 0
    236c:	bb 27       	eor	r27, r27
    236e:	9f 57       	subi	r25, 0x7F	; 127
    2370:	f0 f0       	brcs	.+60     	; 0x23ae <__fp_rempio2+0x4a>
    2372:	2a ed       	ldi	r18, 0xDA	; 218
    2374:	3f e0       	ldi	r19, 0x0F	; 15
    2376:	49 ec       	ldi	r20, 0xC9	; 201
    2378:	06 c0       	rjmp	.+12     	; 0x2386 <__fp_rempio2+0x22>
    237a:	ee 0f       	add	r30, r30
    237c:	bb 0f       	add	r27, r27
    237e:	66 1f       	adc	r22, r22
    2380:	77 1f       	adc	r23, r23
    2382:	88 1f       	adc	r24, r24
    2384:	28 f0       	brcs	.+10     	; 0x2390 <__fp_rempio2+0x2c>
    2386:	b2 3a       	cpi	r27, 0xA2	; 162
    2388:	62 07       	cpc	r22, r18
    238a:	73 07       	cpc	r23, r19
    238c:	84 07       	cpc	r24, r20
    238e:	28 f0       	brcs	.+10     	; 0x239a <__fp_rempio2+0x36>
    2390:	b2 5a       	subi	r27, 0xA2	; 162
    2392:	62 0b       	sbc	r22, r18
    2394:	73 0b       	sbc	r23, r19
    2396:	84 0b       	sbc	r24, r20
    2398:	e3 95       	inc	r30
    239a:	9a 95       	dec	r25
    239c:	72 f7       	brpl	.-36     	; 0x237a <__fp_rempio2+0x16>
    239e:	80 38       	cpi	r24, 0x80	; 128
    23a0:	30 f4       	brcc	.+12     	; 0x23ae <__fp_rempio2+0x4a>
    23a2:	9a 95       	dec	r25
    23a4:	bb 0f       	add	r27, r27
    23a6:	66 1f       	adc	r22, r22
    23a8:	77 1f       	adc	r23, r23
    23aa:	88 1f       	adc	r24, r24
    23ac:	d2 f7       	brpl	.-12     	; 0x23a2 <__fp_rempio2+0x3e>
    23ae:	90 48       	sbci	r25, 0x80	; 128
    23b0:	06 c1       	rjmp	.+524    	; 0x25be <__fp_mpack_finite>

000023b2 <__fp_round>:
    23b2:	09 2e       	mov	r0, r25
    23b4:	03 94       	inc	r0
    23b6:	00 0c       	add	r0, r0
    23b8:	11 f4       	brne	.+4      	; 0x23be <__fp_round+0xc>
    23ba:	88 23       	and	r24, r24
    23bc:	52 f0       	brmi	.+20     	; 0x23d2 <__fp_round+0x20>
    23be:	bb 0f       	add	r27, r27
    23c0:	40 f4       	brcc	.+16     	; 0x23d2 <__fp_round+0x20>
    23c2:	bf 2b       	or	r27, r31
    23c4:	11 f4       	brne	.+4      	; 0x23ca <__fp_round+0x18>
    23c6:	60 ff       	sbrs	r22, 0
    23c8:	04 c0       	rjmp	.+8      	; 0x23d2 <__fp_round+0x20>
    23ca:	6f 5f       	subi	r22, 0xFF	; 255
    23cc:	7f 4f       	sbci	r23, 0xFF	; 255
    23ce:	8f 4f       	sbci	r24, 0xFF	; 255
    23d0:	9f 4f       	sbci	r25, 0xFF	; 255
    23d2:	08 95       	ret

000023d4 <__fp_sinus>:
    23d4:	ef 93       	push	r30
    23d6:	e0 ff       	sbrs	r30, 0
    23d8:	06 c0       	rjmp	.+12     	; 0x23e6 <__fp_sinus+0x12>
    23da:	a2 ea       	ldi	r26, 0xA2	; 162
    23dc:	2a ed       	ldi	r18, 0xDA	; 218
    23de:	3f e0       	ldi	r19, 0x0F	; 15
    23e0:	49 ec       	ldi	r20, 0xC9	; 201
    23e2:	5f eb       	ldi	r21, 0xBF	; 191
    23e4:	89 dd       	rcall	.-1262   	; 0x1ef8 <__addsf3x>
    23e6:	e5 df       	rcall	.-54     	; 0x23b2 <__fp_round>
    23e8:	0f 90       	pop	r0
    23ea:	03 94       	inc	r0
    23ec:	01 fc       	sbrc	r0, 1
    23ee:	90 58       	subi	r25, 0x80	; 128
    23f0:	e5 ef       	ldi	r30, 0xF5	; 245
    23f2:	f0 e0       	ldi	r31, 0x00	; 0
    23f4:	97 cf       	rjmp	.-210    	; 0x2324 <__fp_powsodd>

000023f6 <__fp_split3>:
    23f6:	57 fd       	sbrc	r21, 7
    23f8:	90 58       	subi	r25, 0x80	; 128
    23fa:	44 0f       	add	r20, r20
    23fc:	55 1f       	adc	r21, r21
    23fe:	59 f0       	breq	.+22     	; 0x2416 <__fp_splitA+0x10>
    2400:	5f 3f       	cpi	r21, 0xFF	; 255
    2402:	71 f0       	breq	.+28     	; 0x2420 <__fp_splitA+0x1a>
    2404:	47 95       	ror	r20

00002406 <__fp_splitA>:
    2406:	88 0f       	add	r24, r24
    2408:	97 fb       	bst	r25, 7
    240a:	99 1f       	adc	r25, r25
    240c:	61 f0       	breq	.+24     	; 0x2426 <__fp_splitA+0x20>
    240e:	9f 3f       	cpi	r25, 0xFF	; 255
    2410:	79 f0       	breq	.+30     	; 0x2430 <__fp_splitA+0x2a>
    2412:	87 95       	ror	r24
    2414:	08 95       	ret
    2416:	12 16       	cp	r1, r18
    2418:	13 06       	cpc	r1, r19
    241a:	14 06       	cpc	r1, r20
    241c:	55 1f       	adc	r21, r21
    241e:	f2 cf       	rjmp	.-28     	; 0x2404 <__fp_split3+0xe>
    2420:	46 95       	lsr	r20
    2422:	f1 df       	rcall	.-30     	; 0x2406 <__fp_splitA>
    2424:	08 c0       	rjmp	.+16     	; 0x2436 <__fp_splitA+0x30>
    2426:	16 16       	cp	r1, r22
    2428:	17 06       	cpc	r1, r23
    242a:	18 06       	cpc	r1, r24
    242c:	99 1f       	adc	r25, r25
    242e:	f1 cf       	rjmp	.-30     	; 0x2412 <__fp_splitA+0xc>
    2430:	86 95       	lsr	r24
    2432:	71 05       	cpc	r23, r1
    2434:	61 05       	cpc	r22, r1
    2436:	08 94       	sec
    2438:	08 95       	ret

0000243a <__fp_zero>:
    243a:	e8 94       	clt

0000243c <__fp_szero>:
    243c:	bb 27       	eor	r27, r27
    243e:	66 27       	eor	r22, r22
    2440:	77 27       	eor	r23, r23
    2442:	cb 01       	movw	r24, r22
    2444:	97 f9       	bld	r25, 7
    2446:	08 95       	ret

00002448 <__gesf2>:
    2448:	1b df       	rcall	.-458    	; 0x2280 <__fp_cmp>
    244a:	08 f4       	brcc	.+2      	; 0x244e <__gesf2+0x6>
    244c:	8f ef       	ldi	r24, 0xFF	; 255
    244e:	08 95       	ret

00002450 <inverse>:
    2450:	9b 01       	movw	r18, r22
    2452:	ac 01       	movw	r20, r24
    2454:	60 e0       	ldi	r22, 0x00	; 0
    2456:	70 e0       	ldi	r23, 0x00	; 0
    2458:	80 e8       	ldi	r24, 0x80	; 128
    245a:	9f e3       	ldi	r25, 0x3F	; 63
    245c:	20 ce       	rjmp	.-960    	; 0x209e <__divsf3>

0000245e <__mulsf3>:
    245e:	0b d0       	rcall	.+22     	; 0x2476 <__mulsf3x>
    2460:	a8 cf       	rjmp	.-176    	; 0x23b2 <__fp_round>
    2462:	71 df       	rcall	.-286    	; 0x2346 <__fp_pscA>
    2464:	28 f0       	brcs	.+10     	; 0x2470 <__mulsf3+0x12>
    2466:	76 df       	rcall	.-276    	; 0x2354 <__fp_pscB>
    2468:	18 f0       	brcs	.+6      	; 0x2470 <__mulsf3+0x12>
    246a:	95 23       	and	r25, r21
    246c:	09 f0       	breq	.+2      	; 0x2470 <__mulsf3+0x12>
    246e:	2c cf       	rjmp	.-424    	; 0x22c8 <__fp_inf>
    2470:	31 cf       	rjmp	.-414    	; 0x22d4 <__fp_nan>
    2472:	11 24       	eor	r1, r1
    2474:	e3 cf       	rjmp	.-58     	; 0x243c <__fp_szero>

00002476 <__mulsf3x>:
    2476:	bf df       	rcall	.-130    	; 0x23f6 <__fp_split3>
    2478:	a0 f3       	brcs	.-24     	; 0x2462 <__mulsf3+0x4>

0000247a <__mulsf3_pse>:
    247a:	95 9f       	mul	r25, r21
    247c:	d1 f3       	breq	.-12     	; 0x2472 <__mulsf3+0x14>
    247e:	95 0f       	add	r25, r21
    2480:	50 e0       	ldi	r21, 0x00	; 0
    2482:	55 1f       	adc	r21, r21
    2484:	62 9f       	mul	r22, r18
    2486:	f0 01       	movw	r30, r0
    2488:	72 9f       	mul	r23, r18
    248a:	bb 27       	eor	r27, r27
    248c:	f0 0d       	add	r31, r0
    248e:	b1 1d       	adc	r27, r1
    2490:	63 9f       	mul	r22, r19
    2492:	aa 27       	eor	r26, r26
    2494:	f0 0d       	add	r31, r0
    2496:	b1 1d       	adc	r27, r1
    2498:	aa 1f       	adc	r26, r26
    249a:	64 9f       	mul	r22, r20
    249c:	66 27       	eor	r22, r22
    249e:	b0 0d       	add	r27, r0
    24a0:	a1 1d       	adc	r26, r1
    24a2:	66 1f       	adc	r22, r22
    24a4:	82 9f       	mul	r24, r18
    24a6:	22 27       	eor	r18, r18
    24a8:	b0 0d       	add	r27, r0
    24aa:	a1 1d       	adc	r26, r1
    24ac:	62 1f       	adc	r22, r18
    24ae:	73 9f       	mul	r23, r19
    24b0:	b0 0d       	add	r27, r0
    24b2:	a1 1d       	adc	r26, r1
    24b4:	62 1f       	adc	r22, r18
    24b6:	83 9f       	mul	r24, r19
    24b8:	a0 0d       	add	r26, r0
    24ba:	61 1d       	adc	r22, r1
    24bc:	22 1f       	adc	r18, r18
    24be:	74 9f       	mul	r23, r20
    24c0:	33 27       	eor	r19, r19
    24c2:	a0 0d       	add	r26, r0
    24c4:	61 1d       	adc	r22, r1
    24c6:	23 1f       	adc	r18, r19
    24c8:	84 9f       	mul	r24, r20
    24ca:	60 0d       	add	r22, r0
    24cc:	21 1d       	adc	r18, r1
    24ce:	82 2f       	mov	r24, r18
    24d0:	76 2f       	mov	r23, r22
    24d2:	6a 2f       	mov	r22, r26
    24d4:	11 24       	eor	r1, r1
    24d6:	9f 57       	subi	r25, 0x7F	; 127
    24d8:	50 40       	sbci	r21, 0x00	; 0
    24da:	8a f0       	brmi	.+34     	; 0x24fe <__mulsf3_pse+0x84>
    24dc:	e1 f0       	breq	.+56     	; 0x2516 <__mulsf3_pse+0x9c>
    24de:	88 23       	and	r24, r24
    24e0:	4a f0       	brmi	.+18     	; 0x24f4 <__mulsf3_pse+0x7a>
    24e2:	ee 0f       	add	r30, r30
    24e4:	ff 1f       	adc	r31, r31
    24e6:	bb 1f       	adc	r27, r27
    24e8:	66 1f       	adc	r22, r22
    24ea:	77 1f       	adc	r23, r23
    24ec:	88 1f       	adc	r24, r24
    24ee:	91 50       	subi	r25, 0x01	; 1
    24f0:	50 40       	sbci	r21, 0x00	; 0
    24f2:	a9 f7       	brne	.-22     	; 0x24de <__mulsf3_pse+0x64>
    24f4:	9e 3f       	cpi	r25, 0xFE	; 254
    24f6:	51 05       	cpc	r21, r1
    24f8:	70 f0       	brcs	.+28     	; 0x2516 <__mulsf3_pse+0x9c>
    24fa:	e6 ce       	rjmp	.-564    	; 0x22c8 <__fp_inf>
    24fc:	9f cf       	rjmp	.-194    	; 0x243c <__fp_szero>
    24fe:	5f 3f       	cpi	r21, 0xFF	; 255
    2500:	ec f3       	brlt	.-6      	; 0x24fc <__mulsf3_pse+0x82>
    2502:	98 3e       	cpi	r25, 0xE8	; 232
    2504:	dc f3       	brlt	.-10     	; 0x24fc <__mulsf3_pse+0x82>
    2506:	86 95       	lsr	r24
    2508:	77 95       	ror	r23
    250a:	67 95       	ror	r22
    250c:	b7 95       	ror	r27
    250e:	f7 95       	ror	r31
    2510:	e7 95       	ror	r30
    2512:	9f 5f       	subi	r25, 0xFF	; 255
    2514:	c1 f7       	brne	.-16     	; 0x2506 <__mulsf3_pse+0x8c>
    2516:	fe 2b       	or	r31, r30
    2518:	88 0f       	add	r24, r24
    251a:	91 1d       	adc	r25, r1
    251c:	96 95       	lsr	r25
    251e:	87 95       	ror	r24
    2520:	97 f9       	bld	r25, 7
    2522:	08 95       	ret

00002524 <sin>:
    2524:	9f 93       	push	r25
    2526:	1e df       	rcall	.-452    	; 0x2364 <__fp_rempio2>
    2528:	0f 90       	pop	r0
    252a:	07 fc       	sbrc	r0, 7
    252c:	ee 5f       	subi	r30, 0xFE	; 254
    252e:	52 cf       	rjmp	.-348    	; 0x23d4 <__fp_sinus>
    2530:	11 f4       	brne	.+4      	; 0x2536 <sin+0x12>
    2532:	0e f4       	brtc	.+2      	; 0x2536 <sin+0x12>
    2534:	cf ce       	rjmp	.-610    	; 0x22d4 <__fp_nan>
    2536:	41 c0       	rjmp	.+130    	; 0x25ba <__fp_mpack>

00002538 <sqrt>:
    2538:	66 df       	rcall	.-308    	; 0x2406 <__fp_splitA>
    253a:	d0 f3       	brcs	.-12     	; 0x2530 <sin+0xc>
    253c:	99 23       	and	r25, r25
    253e:	d9 f3       	breq	.-10     	; 0x2536 <sin+0x12>
    2540:	ce f3       	brts	.-14     	; 0x2534 <sin+0x10>
    2542:	9f 57       	subi	r25, 0x7F	; 127
    2544:	55 0b       	sbc	r21, r21
    2546:	87 ff       	sbrs	r24, 7
    2548:	46 d0       	rcall	.+140    	; 0x25d6 <__fp_norm2>
    254a:	00 24       	eor	r0, r0
    254c:	a0 e6       	ldi	r26, 0x60	; 96
    254e:	40 ea       	ldi	r20, 0xA0	; 160
    2550:	90 01       	movw	r18, r0
    2552:	80 58       	subi	r24, 0x80	; 128
    2554:	56 95       	lsr	r21
    2556:	97 95       	ror	r25
    2558:	28 f4       	brcc	.+10     	; 0x2564 <sqrt+0x2c>
    255a:	80 5c       	subi	r24, 0xC0	; 192
    255c:	66 0f       	add	r22, r22
    255e:	77 1f       	adc	r23, r23
    2560:	88 1f       	adc	r24, r24
    2562:	20 f0       	brcs	.+8      	; 0x256c <sqrt+0x34>
    2564:	26 17       	cp	r18, r22
    2566:	37 07       	cpc	r19, r23
    2568:	48 07       	cpc	r20, r24
    256a:	30 f4       	brcc	.+12     	; 0x2578 <sqrt+0x40>
    256c:	62 1b       	sub	r22, r18
    256e:	73 0b       	sbc	r23, r19
    2570:	84 0b       	sbc	r24, r20
    2572:	20 29       	or	r18, r0
    2574:	31 29       	or	r19, r1
    2576:	4a 2b       	or	r20, r26
    2578:	a6 95       	lsr	r26
    257a:	17 94       	ror	r1
    257c:	07 94       	ror	r0
    257e:	20 25       	eor	r18, r0
    2580:	31 25       	eor	r19, r1
    2582:	4a 27       	eor	r20, r26
    2584:	58 f7       	brcc	.-42     	; 0x255c <sqrt+0x24>
    2586:	66 0f       	add	r22, r22
    2588:	77 1f       	adc	r23, r23
    258a:	88 1f       	adc	r24, r24
    258c:	20 f0       	brcs	.+8      	; 0x2596 <sqrt+0x5e>
    258e:	26 17       	cp	r18, r22
    2590:	37 07       	cpc	r19, r23
    2592:	48 07       	cpc	r20, r24
    2594:	30 f4       	brcc	.+12     	; 0x25a2 <sqrt+0x6a>
    2596:	62 0b       	sbc	r22, r18
    2598:	73 0b       	sbc	r23, r19
    259a:	84 0b       	sbc	r24, r20
    259c:	20 0d       	add	r18, r0
    259e:	31 1d       	adc	r19, r1
    25a0:	41 1d       	adc	r20, r1
    25a2:	a0 95       	com	r26
    25a4:	81 f7       	brne	.-32     	; 0x2586 <sqrt+0x4e>
    25a6:	b9 01       	movw	r22, r18
    25a8:	84 2f       	mov	r24, r20
    25aa:	91 58       	subi	r25, 0x81	; 129
    25ac:	88 0f       	add	r24, r24
    25ae:	96 95       	lsr	r25
    25b0:	87 95       	ror	r24
    25b2:	08 95       	ret

000025b4 <square>:
    25b4:	9b 01       	movw	r18, r22
    25b6:	ac 01       	movw	r20, r24
    25b8:	52 cf       	rjmp	.-348    	; 0x245e <__mulsf3>

000025ba <__fp_mpack>:
    25ba:	9f 3f       	cpi	r25, 0xFF	; 255
    25bc:	31 f0       	breq	.+12     	; 0x25ca <__fp_mpack_finite+0xc>

000025be <__fp_mpack_finite>:
    25be:	91 50       	subi	r25, 0x01	; 1
    25c0:	20 f4       	brcc	.+8      	; 0x25ca <__fp_mpack_finite+0xc>
    25c2:	87 95       	ror	r24
    25c4:	77 95       	ror	r23
    25c6:	67 95       	ror	r22
    25c8:	b7 95       	ror	r27
    25ca:	88 0f       	add	r24, r24
    25cc:	91 1d       	adc	r25, r1
    25ce:	96 95       	lsr	r25
    25d0:	87 95       	ror	r24
    25d2:	97 f9       	bld	r25, 7
    25d4:	08 95       	ret

000025d6 <__fp_norm2>:
    25d6:	91 50       	subi	r25, 0x01	; 1
    25d8:	50 40       	sbci	r21, 0x00	; 0
    25da:	66 0f       	add	r22, r22
    25dc:	77 1f       	adc	r23, r23
    25de:	88 1f       	adc	r24, r24
    25e0:	d2 f7       	brpl	.-12     	; 0x25d6 <__fp_norm2>
    25e2:	08 95       	ret

000025e4 <__divmodhi4>:
    25e4:	97 fb       	bst	r25, 7
    25e6:	07 2e       	mov	r0, r23
    25e8:	16 f4       	brtc	.+4      	; 0x25ee <__divmodhi4+0xa>
    25ea:	00 94       	com	r0
    25ec:	06 d0       	rcall	.+12     	; 0x25fa <__divmodhi4_neg1>
    25ee:	77 fd       	sbrc	r23, 7
    25f0:	08 d0       	rcall	.+16     	; 0x2602 <__divmodhi4_neg2>
    25f2:	0b d0       	rcall	.+22     	; 0x260a <__udivmodhi4>
    25f4:	07 fc       	sbrc	r0, 7
    25f6:	05 d0       	rcall	.+10     	; 0x2602 <__divmodhi4_neg2>
    25f8:	3e f4       	brtc	.+14     	; 0x2608 <__divmodhi4_exit>

000025fa <__divmodhi4_neg1>:
    25fa:	90 95       	com	r25
    25fc:	81 95       	neg	r24
    25fe:	9f 4f       	sbci	r25, 0xFF	; 255
    2600:	08 95       	ret

00002602 <__divmodhi4_neg2>:
    2602:	70 95       	com	r23
    2604:	61 95       	neg	r22
    2606:	7f 4f       	sbci	r23, 0xFF	; 255

00002608 <__divmodhi4_exit>:
    2608:	08 95       	ret

0000260a <__udivmodhi4>:
    260a:	aa 1b       	sub	r26, r26
    260c:	bb 1b       	sub	r27, r27
    260e:	51 e1       	ldi	r21, 0x11	; 17
    2610:	07 c0       	rjmp	.+14     	; 0x2620 <__udivmodhi4_ep>

00002612 <__udivmodhi4_loop>:
    2612:	aa 1f       	adc	r26, r26
    2614:	bb 1f       	adc	r27, r27
    2616:	a6 17       	cp	r26, r22
    2618:	b7 07       	cpc	r27, r23
    261a:	10 f0       	brcs	.+4      	; 0x2620 <__udivmodhi4_ep>
    261c:	a6 1b       	sub	r26, r22
    261e:	b7 0b       	sbc	r27, r23

00002620 <__udivmodhi4_ep>:
    2620:	88 1f       	adc	r24, r24
    2622:	99 1f       	adc	r25, r25
    2624:	5a 95       	dec	r21
    2626:	a9 f7       	brne	.-22     	; 0x2612 <__udivmodhi4_loop>
    2628:	80 95       	com	r24
    262a:	90 95       	com	r25
    262c:	bc 01       	movw	r22, r24
    262e:	cd 01       	movw	r24, r26
    2630:	08 95       	ret

00002632 <__tablejump2__>:
    2632:	ee 0f       	add	r30, r30
    2634:	ff 1f       	adc	r31, r31
    2636:	00 24       	eor	r0, r0
    2638:	00 1c       	adc	r0, r0
    263a:	0b be       	out	0x3b, r0	; 59
    263c:	07 90       	elpm	r0, Z+
    263e:	f6 91       	elpm	r31, Z
    2640:	e0 2d       	mov	r30, r0
    2642:	09 94       	ijmp

00002644 <_exit>:
    2644:	f8 94       	cli

00002646 <__stop_program>:
    2646:	ff cf       	rjmp	.-2      	; 0x2646 <__stop_program>
